
SoftwareW2812.elf:     file format elf32-littlearm

Sections:
Idx Name          Size      VMA       LMA       File off  Algn
  0 .isr_vector   0000010c  08000000  08000000  00010000  2**0
                  CONTENTS, ALLOC, LOAD, READONLY, DATA
  1 .text         00001088  0800010c  0800010c  0001010c  2**2
                  CONTENTS, ALLOC, LOAD, READONLY, CODE
  2 .rodata       00000020  08001194  08001194  00011194  2**2
                  CONTENTS, ALLOC, LOAD, READONLY, DATA
  3 .ARM.extab    00000000  080011b4  080011b4  0002001c  2**0
                  CONTENTS
  4 .ARM          00000000  080011b4  080011b4  0002001c  2**0
                  CONTENTS
  5 .preinit_array 00000000  080011b4  080011b4  0002001c  2**0
                  CONTENTS, ALLOC, LOAD, DATA
  6 .init_array   00000004  080011b4  080011b4  000111b4  2**2
                  CONTENTS, ALLOC, LOAD, DATA
  7 .fini_array   00000004  080011b8  080011b8  000111b8  2**2
                  CONTENTS, ALLOC, LOAD, DATA
  8 .data         0000001c  20000000  080011bc  00020000  2**2
                  CONTENTS, ALLOC, LOAD, DATA
  9 .bss          00000030  2000001c  080011d8  0002001c  2**2
                  ALLOC
 10 ._user_heap_stack 00000604  2000004c  080011d8  0002004c  2**0
                  ALLOC
 11 .ARM.attributes 00000029  00000000  00000000  0002001c  2**0
                  CONTENTS, READONLY
 12 .debug_info   000060d3  00000000  00000000  00020045  2**0
                  CONTENTS, READONLY, DEBUGGING
 13 .debug_abbrev 0000164b  00000000  00000000  00026118  2**0
                  CONTENTS, READONLY, DEBUGGING
 14 .debug_aranges 000003b8  00000000  00000000  00027768  2**3
                  CONTENTS, READONLY, DEBUGGING
 15 .debug_ranges 000005f8  00000000  00000000  00027b20  2**3
                  CONTENTS, READONLY, DEBUGGING
 16 .debug_macro  0001703c  00000000  00000000  00028118  2**0
                  CONTENTS, READONLY, DEBUGGING
 17 .debug_line   000051be  00000000  00000000  0003f154  2**0
                  CONTENTS, READONLY, DEBUGGING
 18 .debug_str    00086458  00000000  00000000  00044312  2**0
                  CONTENTS, READONLY, DEBUGGING
 19 .comment      0000007b  00000000  00000000  000ca76a  2**0
                  CONTENTS, READONLY
 20 .debug_frame  00000888  00000000  00000000  000ca7e8  2**2
                  CONTENTS, READONLY, DEBUGGING
 21 .debug_loc    000013a3  00000000  00000000  000cb070  2**0
                  CONTENTS, READONLY, DEBUGGING

Disassembly of section .text:

0800010c <__do_global_dtors_aux>:
 800010c:	b510      	push	{r4, lr}
 800010e:	4c05      	ldr	r4, [pc, #20]	; (8000124 <__do_global_dtors_aux+0x18>)
 8000110:	7823      	ldrb	r3, [r4, #0]
 8000112:	b933      	cbnz	r3, 8000122 <__do_global_dtors_aux+0x16>
 8000114:	4b04      	ldr	r3, [pc, #16]	; (8000128 <__do_global_dtors_aux+0x1c>)
 8000116:	b113      	cbz	r3, 800011e <__do_global_dtors_aux+0x12>
 8000118:	4804      	ldr	r0, [pc, #16]	; (800012c <__do_global_dtors_aux+0x20>)
 800011a:	f3af 8000 	nop.w
 800011e:	2301      	movs	r3, #1
 8000120:	7023      	strb	r3, [r4, #0]
 8000122:	bd10      	pop	{r4, pc}
 8000124:	2000001c 	.word	0x2000001c
 8000128:	00000000 	.word	0x00000000
 800012c:	0800117c 	.word	0x0800117c

08000130 <frame_dummy>:
 8000130:	b508      	push	{r3, lr}
 8000132:	4b03      	ldr	r3, [pc, #12]	; (8000140 <frame_dummy+0x10>)
 8000134:	b11b      	cbz	r3, 800013e <frame_dummy+0xe>
 8000136:	4903      	ldr	r1, [pc, #12]	; (8000144 <frame_dummy+0x14>)
 8000138:	4803      	ldr	r0, [pc, #12]	; (8000148 <frame_dummy+0x18>)
 800013a:	f3af 8000 	nop.w
 800013e:	bd08      	pop	{r3, pc}
 8000140:	00000000 	.word	0x00000000
 8000144:	20000020 	.word	0x20000020
 8000148:	0800117c 	.word	0x0800117c

0800014c <running_example>:
#include "ws2812b.h"



void running_example(void){
 800014c:	b570      	push	{r4, r5, r6, lr}
	static   uint8_t current_led = 0;

	clear_ws2812b_buffer();
 800014e:	f000 f841 	bl	80001d4 <clear_ws2812b_buffer>
	current_led = (current_led + 1) % NUMBER_OF_LEDS;
	set_led(0, 0, 55, current_led);
 8000152:	2100      	movs	r1, #0
	current_led = (current_led + 1) % NUMBER_OF_LEDS;
 8000154:	4d0f      	ldr	r5, [pc, #60]	; (8000194 <running_example+0x48>)
	set_led(0, 0, 55, current_led);
 8000156:	4608      	mov	r0, r1
	current_led = (current_led + 1) % NUMBER_OF_LEDS;
 8000158:	782c      	ldrb	r4, [r5, #0]
	set_led(0, 0, 55, current_led);
 800015a:	2237      	movs	r2, #55	; 0x37
	current_led = (current_led + 1) % NUMBER_OF_LEDS;
 800015c:	3401      	adds	r4, #1
 800015e:	f004 0403 	and.w	r4, r4, #3
	set_led(0, 0, 55, current_led);
 8000162:	4623      	mov	r3, r4
	current_led = (current_led + 1) % NUMBER_OF_LEDS;
 8000164:	702c      	strb	r4, [r5, #0]
	set_led(0, 0, 55, current_led);
 8000166:	f000 fa71 	bl	800064c <set_led>
	set_led(0, 55, 0, (current_led+1)% NUMBER_OF_LEDS);
 800016a:	2200      	movs	r2, #0
 800016c:	782b      	ldrb	r3, [r5, #0]
 800016e:	4610      	mov	r0, r2
 8000170:	3301      	adds	r3, #1
 8000172:	f003 0303 	and.w	r3, r3, #3
 8000176:	2137      	movs	r1, #55	; 0x37
 8000178:	f000 fa68 	bl	800064c <set_led>
	set_led(55, 0, 0, (current_led+2)% NUMBER_OF_LEDS);
 800017c:	2200      	movs	r2, #0
 800017e:	782b      	ldrb	r3, [r5, #0]
 8000180:	4611      	mov	r1, r2
}
 8000182:	e8bd 4070 	ldmia.w	sp!, {r4, r5, r6, lr}
	set_led(55, 0, 0, (current_led+2)% NUMBER_OF_LEDS);
 8000186:	3302      	adds	r3, #2
 8000188:	f003 0303 	and.w	r3, r3, #3
 800018c:	2037      	movs	r0, #55	; 0x37
 800018e:	f000 ba5d 	b.w	800064c <set_led>
 8000192:	bf00      	nop
 8000194:	20000038 	.word	0x20000038

08000198 <running_example_2>:


void running_example_2(void){
	static   uint8_t current_led = 0;

	set_all_leds(0, 0, 55);
 8000198:	2100      	movs	r1, #0
void running_example_2(void){
 800019a:	b508      	push	{r3, lr}
	set_all_leds(0, 0, 55);
 800019c:	4608      	mov	r0, r1
 800019e:	2237      	movs	r2, #55	; 0x37
 80001a0:	f000 fa64 	bl	800066c <set_all_leds>
	HAL_Delay(1000);
 80001a4:	f44f 707a 	mov.w	r0, #1000	; 0x3e8
 80001a8:	f000 fb90 	bl	80008cc <HAL_Delay>
	set_all_leds(0, 55, 0);
 80001ac:	2200      	movs	r2, #0
 80001ae:	2137      	movs	r1, #55	; 0x37
 80001b0:	4610      	mov	r0, r2
 80001b2:	f000 fa5b 	bl	800066c <set_all_leds>

	HAL_Delay(1000);
 80001b6:	f44f 707a 	mov.w	r0, #1000	; 0x3e8
 80001ba:	f000 fb87 	bl	80008cc <HAL_Delay>
	set_all_leds(55, 0, 0);
 80001be:	2200      	movs	r2, #0
 80001c0:	2037      	movs	r0, #55	; 0x37
 80001c2:	4611      	mov	r1, r2
 80001c4:	f000 fa52 	bl	800066c <set_all_leds>

	HAL_Delay(1000);
}
 80001c8:	e8bd 4008 	ldmia.w	sp!, {r3, lr}
	HAL_Delay(1000);
 80001cc:	f44f 707a 	mov.w	r0, #1000	; 0x3e8
 80001d0:	f000 bb7c 	b.w	80008cc <HAL_Delay>

080001d4 <clear_ws2812b_buffer>:
}


void clear_ws2812b_buffer(void){
	for(uint8_t i = 0; i < NUMBER_OF_LEDS; i ++){
		memset(&leds[i], 0, sizeof(RGB_t));
 80001d4:	2300      	movs	r3, #0
 80001d6:	4a07      	ldr	r2, [pc, #28]	; (80001f4 <clear_ws2812b_buffer+0x20>)
void clear_ws2812b_buffer(void){
 80001d8:	b410      	push	{r4}
		memset(&leds[i], 0, sizeof(RGB_t));
 80001da:	7153      	strb	r3, [r2, #5]
 80001dc:	8013      	strh	r3, [r2, #0]
 80001de:	7093      	strb	r3, [r2, #2]
 80001e0:	f8a2 3003 	strh.w	r3, [r2, #3]
 80001e4:	80d3      	strh	r3, [r2, #6]
 80001e6:	f8a2 3009 	strh.w	r3, [r2, #9]
 80001ea:	7213      	strb	r3, [r2, #8]
 80001ec:	72d3      	strb	r3, [r2, #11]
	}
}
 80001ee:	bc10      	pop	{r4}
 80001f0:	4770      	bx	lr
 80001f2:	bf00      	nop
 80001f4:	2000003c 	.word	0x2000003c

080001f8 <WS2812B_Write>:
  // +300ns
  __asm__ volatile("nop\nnop\nnop\nnop\nnop\nnop\nnop\nnop\nnop\nnop\nnop\nnop\nnop\nnop\nnop\nnop\nnop\nnop\n");

}
void WS2812B_Write(WS2812B_t* ws2812b) {
  for (uint16_t i = 0; i < ws2812b->num_leds; i++) {
 80001f8:	8883      	ldrh	r3, [r0, #4]
void WS2812B_Write(WS2812B_t* ws2812b) {
 80001fa:	e92d 41f0 	stmdb	sp!, {r4, r5, r6, r7, r8, lr}
  for (uint16_t i = 0; i < ws2812b->num_leds; i++) {
 80001fe:	2b00      	cmp	r3, #0
 8000200:	f000 8219 	beq.w	8000636 <WS2812B_Write+0x43e>
 8000204:	2600      	movs	r6, #0
    RGB_t led = ws2812b->leds[i];
 8000206:	6805      	ldr	r5, [r0, #0]
 8000208:	eb06 0446 	add.w	r4, r6, r6, lsl #1
 800020c:	192b      	adds	r3, r5, r4
 800020e:	f815 c004 	ldrb.w	ip, [r5, r4]
 8000212:	2108      	movs	r1, #8

    // Green
    for (uint8_t mask = 0x80; mask != 0; mask >>= 1) {
 8000214:	2280      	movs	r2, #128	; 0x80
    RGB_t led = ws2812b->leds[i];
 8000216:	f893 8001 	ldrb.w	r8, [r3, #1]
 800021a:	789d      	ldrb	r5, [r3, #2]
 800021c:	e04f      	b.n	80002be <WS2812B_Write+0xc6>
  __asm__ volatile("nop\nnop\nnop\nnop\nnop\nnop\nnop\nnop\nnop\nnop\nnop\nnop\nnop\nnop\nnop\nnop\nnop\nnop\nnop\nnop\nnop\nnop\nnop\nnop\nnop\n");
 800021e:	bf00      	nop
 8000220:	bf00      	nop
 8000222:	bf00      	nop
 8000224:	bf00      	nop
 8000226:	bf00      	nop
 8000228:	bf00      	nop
 800022a:	bf00      	nop
 800022c:	bf00      	nop
 800022e:	bf00      	nop
 8000230:	bf00      	nop
 8000232:	bf00      	nop
 8000234:	bf00      	nop
 8000236:	bf00      	nop
 8000238:	bf00      	nop
 800023a:	bf00      	nop
 800023c:	bf00      	nop
 800023e:	bf00      	nop
 8000240:	bf00      	nop
 8000242:	bf00      	nop
 8000244:	bf00      	nop
 8000246:	bf00      	nop
 8000248:	bf00      	nop
 800024a:	bf00      	nop
 800024c:	bf00      	nop
 800024e:	bf00      	nop
  __asm__ volatile("nop\nnop\nnop\nnop\nnop\nnop\nnop\nnop\nnop\nnop\nnop\nnop\nnop\nnop\nnop\nnop\nnop\nnop\nnop\nnop\nnop\nnop\nnop\nnop\nnop\n");
 8000250:	bf00      	nop
 8000252:	bf00      	nop
 8000254:	bf00      	nop
 8000256:	bf00      	nop
 8000258:	bf00      	nop
 800025a:	bf00      	nop
 800025c:	bf00      	nop
 800025e:	bf00      	nop
 8000260:	bf00      	nop
 8000262:	bf00      	nop
 8000264:	bf00      	nop
 8000266:	bf00      	nop
 8000268:	bf00      	nop
 800026a:	bf00      	nop
 800026c:	bf00      	nop
 800026e:	bf00      	nop
 8000270:	bf00      	nop
 8000272:	bf00      	nop
 8000274:	bf00      	nop
 8000276:	bf00      	nop
 8000278:	bf00      	nop
 800027a:	bf00      	nop
 800027c:	bf00      	nop
 800027e:	bf00      	nop
 8000280:	bf00      	nop
  __asm__ volatile("nop\nnop\nnop\nnop\nnop");
 8000282:	bf00      	nop
 8000284:	bf00      	nop
 8000286:	bf00      	nop
 8000288:	bf00      	nop
 800028a:	bf00      	nop
  port->ODR &= ~(pin);//Pin LOW - 120ns
 800028c:	68dc      	ldr	r4, [r3, #12]
 800028e:	4027      	ands	r7, r4
 8000290:	60df      	str	r7, [r3, #12]
  __asm__ volatile("nop\nnop\nnop\nnop\nnop\nnop\nnop\nnop\nnop\nnop\nnop\nnop\nnop\nnop\nnop\nnop\nnop\nnop\n");
 8000292:	bf00      	nop
 8000294:	bf00      	nop
 8000296:	bf00      	nop
 8000298:	bf00      	nop
 800029a:	bf00      	nop
 800029c:	bf00      	nop
 800029e:	bf00      	nop
 80002a0:	bf00      	nop
 80002a2:	bf00      	nop
 80002a4:	bf00      	nop
 80002a6:	bf00      	nop
 80002a8:	bf00      	nop
 80002aa:	bf00      	nop
 80002ac:	bf00      	nop
 80002ae:	bf00      	nop
 80002b0:	bf00      	nop
 80002b2:	bf00      	nop
 80002b4:	bf00      	nop
    for (uint8_t mask = 0x80; mask != 0; mask >>= 1) {
 80002b6:	3901      	subs	r1, #1
 80002b8:	ea4f 0252 	mov.w	r2, r2, lsr #1
 80002bc:	d05a      	beq.n	8000374 <WS2812B_Write+0x17c>
 80002be:	6883      	ldr	r3, [r0, #8]
 80002c0:	8984      	ldrh	r4, [r0, #12]
  port->ODR |= pin; //Pin HIGH - 120ns
 80002c2:	f8d3 e00c 	ldr.w	lr, [r3, #12]
 80002c6:	43e7      	mvns	r7, r4
      if (led.g & mask) {
 80002c8:	ea18 0f02 	tst.w	r8, r2
  port->ODR |= pin; //Pin HIGH - 120ns
 80002cc:	ea4e 0404 	orr.w	r4, lr, r4
 80002d0:	60dc      	str	r4, [r3, #12]
      if (led.g & mask) {
 80002d2:	d1a4      	bne.n	800021e <WS2812B_Write+0x26>
	__asm__ volatile("nop\nnop\nnop\nnop\nnop\nnop\nnop\nnop\nnop\nnop\nnop\nnop\nnop\nnop\nnop\nnop\nnop\nnop\n");
 80002d4:	bf00      	nop
 80002d6:	bf00      	nop
 80002d8:	bf00      	nop
 80002da:	bf00      	nop
 80002dc:	bf00      	nop
 80002de:	bf00      	nop
 80002e0:	bf00      	nop
 80002e2:	bf00      	nop
 80002e4:	bf00      	nop
 80002e6:	bf00      	nop
 80002e8:	bf00      	nop
 80002ea:	bf00      	nop
 80002ec:	bf00      	nop
 80002ee:	bf00      	nop
 80002f0:	bf00      	nop
 80002f2:	bf00      	nop
 80002f4:	bf00      	nop
 80002f6:	bf00      	nop
  	port->ODR &= ~(pin); //Pin LOW - 120ns
 80002f8:	68dc      	ldr	r4, [r3, #12]
 80002fa:	4027      	ands	r7, r4
 80002fc:	60df      	str	r7, [r3, #12]
  __asm__ volatile("nop\nnop\nnop\nnop\nnop\nnop\nnop\nnop\nnop\nnop\nnop\nnop\nnop\nnop\nnop\nnop\nnop\nnop\nnop\nnop\nnop\nnop\nnop\nnop\nnop\n");
 80002fe:	bf00      	nop
 8000300:	bf00      	nop
 8000302:	bf00      	nop
 8000304:	bf00      	nop
 8000306:	bf00      	nop
 8000308:	bf00      	nop
 800030a:	bf00      	nop
 800030c:	bf00      	nop
 800030e:	bf00      	nop
 8000310:	bf00      	nop
 8000312:	bf00      	nop
 8000314:	bf00      	nop
 8000316:	bf00      	nop
 8000318:	bf00      	nop
 800031a:	bf00      	nop
 800031c:	bf00      	nop
 800031e:	bf00      	nop
 8000320:	bf00      	nop
 8000322:	bf00      	nop
 8000324:	bf00      	nop
 8000326:	bf00      	nop
 8000328:	bf00      	nop
 800032a:	bf00      	nop
 800032c:	bf00      	nop
 800032e:	bf00      	nop
  __asm__ volatile("nop\nnop\nnop\nnop\nnop\nnop\nnop\nnop\nnop\nnop\nnop\nnop\nnop\nnop\nnop\nnop\nnop\nnop\nnop\nnop\nnop\nnop\nnop\nnop\nnop\n");
 8000330:	bf00      	nop
 8000332:	bf00      	nop
 8000334:	bf00      	nop
 8000336:	bf00      	nop
 8000338:	bf00      	nop
 800033a:	bf00      	nop
 800033c:	bf00      	nop
 800033e:	bf00      	nop
 8000340:	bf00      	nop
 8000342:	bf00      	nop
 8000344:	bf00      	nop
 8000346:	bf00      	nop
 8000348:	bf00      	nop
 800034a:	bf00      	nop
 800034c:	bf00      	nop
 800034e:	bf00      	nop
 8000350:	bf00      	nop
 8000352:	bf00      	nop
 8000354:	bf00      	nop
 8000356:	bf00      	nop
 8000358:	bf00      	nop
 800035a:	bf00      	nop
 800035c:	bf00      	nop
 800035e:	bf00      	nop
 8000360:	bf00      	nop
  __asm__ volatile("nop\nnop\nnop\nnop\nnop");
 8000362:	bf00      	nop
 8000364:	bf00      	nop
 8000366:	bf00      	nop
 8000368:	bf00      	nop
 800036a:	bf00      	nop
    for (uint8_t mask = 0x80; mask != 0; mask >>= 1) {
 800036c:	3901      	subs	r1, #1
 800036e:	ea4f 0252 	mov.w	r2, r2, lsr #1
 8000372:	d1a4      	bne.n	80002be <WS2812B_Write+0xc6>
 8000374:	2108      	movs	r1, #8
        send_zero(ws2812b->port, ws2812b->pin);
      }
    }

    // Red
    for (uint8_t mask = 0x80; mask != 0; mask >>= 1) {
 8000376:	2280      	movs	r2, #128	; 0x80
 8000378:	e04f      	b.n	800041a <WS2812B_Write+0x222>
  __asm__ volatile("nop\nnop\nnop\nnop\nnop\nnop\nnop\nnop\nnop\nnop\nnop\nnop\nnop\nnop\nnop\nnop\nnop\nnop\nnop\nnop\nnop\nnop\nnop\nnop\nnop\n");
 800037a:	bf00      	nop
 800037c:	bf00      	nop
 800037e:	bf00      	nop
 8000380:	bf00      	nop
 8000382:	bf00      	nop
 8000384:	bf00      	nop
 8000386:	bf00      	nop
 8000388:	bf00      	nop
 800038a:	bf00      	nop
 800038c:	bf00      	nop
 800038e:	bf00      	nop
 8000390:	bf00      	nop
 8000392:	bf00      	nop
 8000394:	bf00      	nop
 8000396:	bf00      	nop
 8000398:	bf00      	nop
 800039a:	bf00      	nop
 800039c:	bf00      	nop
 800039e:	bf00      	nop
 80003a0:	bf00      	nop
 80003a2:	bf00      	nop
 80003a4:	bf00      	nop
 80003a6:	bf00      	nop
 80003a8:	bf00      	nop
 80003aa:	bf00      	nop
  __asm__ volatile("nop\nnop\nnop\nnop\nnop\nnop\nnop\nnop\nnop\nnop\nnop\nnop\nnop\nnop\nnop\nnop\nnop\nnop\nnop\nnop\nnop\nnop\nnop\nnop\nnop\n");
 80003ac:	bf00      	nop
 80003ae:	bf00      	nop
 80003b0:	bf00      	nop
 80003b2:	bf00      	nop
 80003b4:	bf00      	nop
 80003b6:	bf00      	nop
 80003b8:	bf00      	nop
 80003ba:	bf00      	nop
 80003bc:	bf00      	nop
 80003be:	bf00      	nop
 80003c0:	bf00      	nop
 80003c2:	bf00      	nop
 80003c4:	bf00      	nop
 80003c6:	bf00      	nop
 80003c8:	bf00      	nop
 80003ca:	bf00      	nop
 80003cc:	bf00      	nop
 80003ce:	bf00      	nop
 80003d0:	bf00      	nop
 80003d2:	bf00      	nop
 80003d4:	bf00      	nop
 80003d6:	bf00      	nop
 80003d8:	bf00      	nop
 80003da:	bf00      	nop
 80003dc:	bf00      	nop
  __asm__ volatile("nop\nnop\nnop\nnop\nnop");
 80003de:	bf00      	nop
 80003e0:	bf00      	nop
 80003e2:	bf00      	nop
 80003e4:	bf00      	nop
 80003e6:	bf00      	nop
  port->ODR &= ~(pin);//Pin LOW - 120ns
 80003e8:	68dc      	ldr	r4, [r3, #12]
 80003ea:	4027      	ands	r7, r4
 80003ec:	60df      	str	r7, [r3, #12]
  __asm__ volatile("nop\nnop\nnop\nnop\nnop\nnop\nnop\nnop\nnop\nnop\nnop\nnop\nnop\nnop\nnop\nnop\nnop\nnop\n");
 80003ee:	bf00      	nop
 80003f0:	bf00      	nop
 80003f2:	bf00      	nop
 80003f4:	bf00      	nop
 80003f6:	bf00      	nop
 80003f8:	bf00      	nop
 80003fa:	bf00      	nop
 80003fc:	bf00      	nop
 80003fe:	bf00      	nop
 8000400:	bf00      	nop
 8000402:	bf00      	nop
 8000404:	bf00      	nop
 8000406:	bf00      	nop
 8000408:	bf00      	nop
 800040a:	bf00      	nop
 800040c:	bf00      	nop
 800040e:	bf00      	nop
 8000410:	bf00      	nop
    for (uint8_t mask = 0x80; mask != 0; mask >>= 1) {
 8000412:	3901      	subs	r1, #1
 8000414:	ea4f 0252 	mov.w	r2, r2, lsr #1
 8000418:	d05a      	beq.n	80004d0 <WS2812B_Write+0x2d8>
 800041a:	6883      	ldr	r3, [r0, #8]
 800041c:	8984      	ldrh	r4, [r0, #12]
  port->ODR |= pin; //Pin HIGH - 120ns
 800041e:	f8d3 e00c 	ldr.w	lr, [r3, #12]
 8000422:	43e7      	mvns	r7, r4
      if (led.r & mask) {
 8000424:	ea1c 0f02 	tst.w	ip, r2
  port->ODR |= pin; //Pin HIGH - 120ns
 8000428:	ea4e 0404 	orr.w	r4, lr, r4
 800042c:	60dc      	str	r4, [r3, #12]
      if (led.r & mask) {
 800042e:	d1a4      	bne.n	800037a <WS2812B_Write+0x182>
	__asm__ volatile("nop\nnop\nnop\nnop\nnop\nnop\nnop\nnop\nnop\nnop\nnop\nnop\nnop\nnop\nnop\nnop\nnop\nnop\n");
 8000430:	bf00      	nop
 8000432:	bf00      	nop
 8000434:	bf00      	nop
 8000436:	bf00      	nop
 8000438:	bf00      	nop
 800043a:	bf00      	nop
 800043c:	bf00      	nop
 800043e:	bf00      	nop
 8000440:	bf00      	nop
 8000442:	bf00      	nop
 8000444:	bf00      	nop
 8000446:	bf00      	nop
 8000448:	bf00      	nop
 800044a:	bf00      	nop
 800044c:	bf00      	nop
 800044e:	bf00      	nop
 8000450:	bf00      	nop
 8000452:	bf00      	nop
  	port->ODR &= ~(pin); //Pin LOW - 120ns
 8000454:	68dc      	ldr	r4, [r3, #12]
 8000456:	4027      	ands	r7, r4
 8000458:	60df      	str	r7, [r3, #12]
  __asm__ volatile("nop\nnop\nnop\nnop\nnop\nnop\nnop\nnop\nnop\nnop\nnop\nnop\nnop\nnop\nnop\nnop\nnop\nnop\nnop\nnop\nnop\nnop\nnop\nnop\nnop\n");
 800045a:	bf00      	nop
 800045c:	bf00      	nop
 800045e:	bf00      	nop
 8000460:	bf00      	nop
 8000462:	bf00      	nop
 8000464:	bf00      	nop
 8000466:	bf00      	nop
 8000468:	bf00      	nop
 800046a:	bf00      	nop
 800046c:	bf00      	nop
 800046e:	bf00      	nop
 8000470:	bf00      	nop
 8000472:	bf00      	nop
 8000474:	bf00      	nop
 8000476:	bf00      	nop
 8000478:	bf00      	nop
 800047a:	bf00      	nop
 800047c:	bf00      	nop
 800047e:	bf00      	nop
 8000480:	bf00      	nop
 8000482:	bf00      	nop
 8000484:	bf00      	nop
 8000486:	bf00      	nop
 8000488:	bf00      	nop
 800048a:	bf00      	nop
  __asm__ volatile("nop\nnop\nnop\nnop\nnop\nnop\nnop\nnop\nnop\nnop\nnop\nnop\nnop\nnop\nnop\nnop\nnop\nnop\nnop\nnop\nnop\nnop\nnop\nnop\nnop\n");
 800048c:	bf00      	nop
 800048e:	bf00      	nop
 8000490:	bf00      	nop
 8000492:	bf00      	nop
 8000494:	bf00      	nop
 8000496:	bf00      	nop
 8000498:	bf00      	nop
 800049a:	bf00      	nop
 800049c:	bf00      	nop
 800049e:	bf00      	nop
 80004a0:	bf00      	nop
 80004a2:	bf00      	nop
 80004a4:	bf00      	nop
 80004a6:	bf00      	nop
 80004a8:	bf00      	nop
 80004aa:	bf00      	nop
 80004ac:	bf00      	nop
 80004ae:	bf00      	nop
 80004b0:	bf00      	nop
 80004b2:	bf00      	nop
 80004b4:	bf00      	nop
 80004b6:	bf00      	nop
 80004b8:	bf00      	nop
 80004ba:	bf00      	nop
 80004bc:	bf00      	nop
  __asm__ volatile("nop\nnop\nnop\nnop\nnop");
 80004be:	bf00      	nop
 80004c0:	bf00      	nop
 80004c2:	bf00      	nop
 80004c4:	bf00      	nop
 80004c6:	bf00      	nop
    for (uint8_t mask = 0x80; mask != 0; mask >>= 1) {
 80004c8:	3901      	subs	r1, #1
 80004ca:	ea4f 0252 	mov.w	r2, r2, lsr #1
 80004ce:	d1a4      	bne.n	800041a <WS2812B_Write+0x222>
 80004d0:	2108      	movs	r1, #8
        send_zero(ws2812b->port, ws2812b->pin);
      }
    }

    // Blue
    for (uint8_t mask = 0x80; mask != 0; mask >>= 1) {
 80004d2:	2280      	movs	r2, #128	; 0x80
 80004d4:	e04f      	b.n	8000576 <WS2812B_Write+0x37e>
  __asm__ volatile("nop\nnop\nnop\nnop\nnop\nnop\nnop\nnop\nnop\nnop\nnop\nnop\nnop\nnop\nnop\nnop\nnop\nnop\nnop\nnop\nnop\nnop\nnop\nnop\nnop\n");
 80004d6:	bf00      	nop
 80004d8:	bf00      	nop
 80004da:	bf00      	nop
 80004dc:	bf00      	nop
 80004de:	bf00      	nop
 80004e0:	bf00      	nop
 80004e2:	bf00      	nop
 80004e4:	bf00      	nop
 80004e6:	bf00      	nop
 80004e8:	bf00      	nop
 80004ea:	bf00      	nop
 80004ec:	bf00      	nop
 80004ee:	bf00      	nop
 80004f0:	bf00      	nop
 80004f2:	bf00      	nop
 80004f4:	bf00      	nop
 80004f6:	bf00      	nop
 80004f8:	bf00      	nop
 80004fa:	bf00      	nop
 80004fc:	bf00      	nop
 80004fe:	bf00      	nop
 8000500:	bf00      	nop
 8000502:	bf00      	nop
 8000504:	bf00      	nop
 8000506:	bf00      	nop
  __asm__ volatile("nop\nnop\nnop\nnop\nnop\nnop\nnop\nnop\nnop\nnop\nnop\nnop\nnop\nnop\nnop\nnop\nnop\nnop\nnop\nnop\nnop\nnop\nnop\nnop\nnop\n");
 8000508:	bf00      	nop
 800050a:	bf00      	nop
 800050c:	bf00      	nop
 800050e:	bf00      	nop
 8000510:	bf00      	nop
 8000512:	bf00      	nop
 8000514:	bf00      	nop
 8000516:	bf00      	nop
 8000518:	bf00      	nop
 800051a:	bf00      	nop
 800051c:	bf00      	nop
 800051e:	bf00      	nop
 8000520:	bf00      	nop
 8000522:	bf00      	nop
 8000524:	bf00      	nop
 8000526:	bf00      	nop
 8000528:	bf00      	nop
 800052a:	bf00      	nop
 800052c:	bf00      	nop
 800052e:	bf00      	nop
 8000530:	bf00      	nop
 8000532:	bf00      	nop
 8000534:	bf00      	nop
 8000536:	bf00      	nop
 8000538:	bf00      	nop
  __asm__ volatile("nop\nnop\nnop\nnop\nnop");
 800053a:	bf00      	nop
 800053c:	bf00      	nop
 800053e:	bf00      	nop
 8000540:	bf00      	nop
 8000542:	bf00      	nop
  port->ODR &= ~(pin);//Pin LOW - 120ns
 8000544:	68dc      	ldr	r4, [r3, #12]
 8000546:	4027      	ands	r7, r4
 8000548:	60df      	str	r7, [r3, #12]
  __asm__ volatile("nop\nnop\nnop\nnop\nnop\nnop\nnop\nnop\nnop\nnop\nnop\nnop\nnop\nnop\nnop\nnop\nnop\nnop\n");
 800054a:	bf00      	nop
 800054c:	bf00      	nop
 800054e:	bf00      	nop
 8000550:	bf00      	nop
 8000552:	bf00      	nop
 8000554:	bf00      	nop
 8000556:	bf00      	nop
 8000558:	bf00      	nop
 800055a:	bf00      	nop
 800055c:	bf00      	nop
 800055e:	bf00      	nop
 8000560:	bf00      	nop
 8000562:	bf00      	nop
 8000564:	bf00      	nop
 8000566:	bf00      	nop
 8000568:	bf00      	nop
 800056a:	bf00      	nop
 800056c:	bf00      	nop
    for (uint8_t mask = 0x80; mask != 0; mask >>= 1) {
 800056e:	3901      	subs	r1, #1
 8000570:	ea4f 0252 	mov.w	r2, r2, lsr #1
 8000574:	d059      	beq.n	800062a <WS2812B_Write+0x432>
 8000576:	6883      	ldr	r3, [r0, #8]
 8000578:	8984      	ldrh	r4, [r0, #12]
  port->ODR |= pin; //Pin HIGH - 120ns
 800057a:	f8d3 c00c 	ldr.w	ip, [r3, #12]
 800057e:	43e7      	mvns	r7, r4
      if (led.b & mask) {
 8000580:	4215      	tst	r5, r2
  port->ODR |= pin; //Pin HIGH - 120ns
 8000582:	ea4c 0404 	orr.w	r4, ip, r4
 8000586:	60dc      	str	r4, [r3, #12]
      if (led.b & mask) {
 8000588:	d1a5      	bne.n	80004d6 <WS2812B_Write+0x2de>
	__asm__ volatile("nop\nnop\nnop\nnop\nnop\nnop\nnop\nnop\nnop\nnop\nnop\nnop\nnop\nnop\nnop\nnop\nnop\nnop\n");
 800058a:	bf00      	nop
 800058c:	bf00      	nop
 800058e:	bf00      	nop
 8000590:	bf00      	nop
 8000592:	bf00      	nop
 8000594:	bf00      	nop
 8000596:	bf00      	nop
 8000598:	bf00      	nop
 800059a:	bf00      	nop
 800059c:	bf00      	nop
 800059e:	bf00      	nop
 80005a0:	bf00      	nop
 80005a2:	bf00      	nop
 80005a4:	bf00      	nop
 80005a6:	bf00      	nop
 80005a8:	bf00      	nop
 80005aa:	bf00      	nop
 80005ac:	bf00      	nop
  	port->ODR &= ~(pin); //Pin LOW - 120ns
 80005ae:	68dc      	ldr	r4, [r3, #12]
 80005b0:	4027      	ands	r7, r4
 80005b2:	60df      	str	r7, [r3, #12]
  __asm__ volatile("nop\nnop\nnop\nnop\nnop\nnop\nnop\nnop\nnop\nnop\nnop\nnop\nnop\nnop\nnop\nnop\nnop\nnop\nnop\nnop\nnop\nnop\nnop\nnop\nnop\n");
 80005b4:	bf00      	nop
 80005b6:	bf00      	nop
 80005b8:	bf00      	nop
 80005ba:	bf00      	nop
 80005bc:	bf00      	nop
 80005be:	bf00      	nop
 80005c0:	bf00      	nop
 80005c2:	bf00      	nop
 80005c4:	bf00      	nop
 80005c6:	bf00      	nop
 80005c8:	bf00      	nop
 80005ca:	bf00      	nop
 80005cc:	bf00      	nop
 80005ce:	bf00      	nop
 80005d0:	bf00      	nop
 80005d2:	bf00      	nop
 80005d4:	bf00      	nop
 80005d6:	bf00      	nop
 80005d8:	bf00      	nop
 80005da:	bf00      	nop
 80005dc:	bf00      	nop
 80005de:	bf00      	nop
 80005e0:	bf00      	nop
 80005e2:	bf00      	nop
 80005e4:	bf00      	nop
  __asm__ volatile("nop\nnop\nnop\nnop\nnop\nnop\nnop\nnop\nnop\nnop\nnop\nnop\nnop\nnop\nnop\nnop\nnop\nnop\nnop\nnop\nnop\nnop\nnop\nnop\nnop\n");
 80005e6:	bf00      	nop
 80005e8:	bf00      	nop
 80005ea:	bf00      	nop
 80005ec:	bf00      	nop
 80005ee:	bf00      	nop
 80005f0:	bf00      	nop
 80005f2:	bf00      	nop
 80005f4:	bf00      	nop
 80005f6:	bf00      	nop
 80005f8:	bf00      	nop
 80005fa:	bf00      	nop
 80005fc:	bf00      	nop
 80005fe:	bf00      	nop
 8000600:	bf00      	nop
 8000602:	bf00      	nop
 8000604:	bf00      	nop
 8000606:	bf00      	nop
 8000608:	bf00      	nop
 800060a:	bf00      	nop
 800060c:	bf00      	nop
 800060e:	bf00      	nop
 8000610:	bf00      	nop
 8000612:	bf00      	nop
 8000614:	bf00      	nop
 8000616:	bf00      	nop
  __asm__ volatile("nop\nnop\nnop\nnop\nnop");
 8000618:	bf00      	nop
 800061a:	bf00      	nop
 800061c:	bf00      	nop
 800061e:	bf00      	nop
 8000620:	bf00      	nop
    for (uint8_t mask = 0x80; mask != 0; mask >>= 1) {
 8000622:	3901      	subs	r1, #1
 8000624:	ea4f 0252 	mov.w	r2, r2, lsr #1
 8000628:	d1a5      	bne.n	8000576 <WS2812B_Write+0x37e>
  for (uint16_t i = 0; i < ws2812b->num_leds; i++) {
 800062a:	3601      	adds	r6, #1
 800062c:	8883      	ldrh	r3, [r0, #4]
 800062e:	b2b6      	uxth	r6, r6
 8000630:	42b3      	cmp	r3, r6
 8000632:	f63f ade8 	bhi.w	8000206 <WS2812B_Write+0xe>
    for (uint8_t mask = 0x80; mask != 0; mask >>= 1) {
 8000636:	f44f 7316 	mov.w	r3, #600	; 0x258
    }
  }

  // Reset code - optional, may not need this piece of code
  for (uint16_t i = 0; i < 600; i++) {
    __asm__ volatile("nop\nnop\n");
 800063a:	bf00      	nop
 800063c:	bf00      	nop
 800063e:	3b01      	subs	r3, #1
 8000640:	b29b      	uxth	r3, r3
  for (uint16_t i = 0; i < 600; i++) {
 8000642:	2b00      	cmp	r3, #0
 8000644:	d1f9      	bne.n	800063a <WS2812B_Write+0x442>
  }
}
 8000646:	e8bd 81f0 	ldmia.w	sp!, {r4, r5, r6, r7, r8, pc}
 800064a:	bf00      	nop

0800064c <set_led>:
{
 800064c:	b410      	push	{r4}
	leds[ledIndex].r = red;
 800064e:	4c05      	ldr	r4, [pc, #20]	; (8000664 <set_led+0x18>)
 8000650:	eb03 0343 	add.w	r3, r3, r3, lsl #1
 8000654:	54e0      	strb	r0, [r4, r3]
 8000656:	441c      	add	r4, r3
	leds[ledIndex].g = green;
 8000658:	7061      	strb	r1, [r4, #1]
	leds[ledIndex].b = blue;
 800065a:	70a2      	strb	r2, [r4, #2]
	WS2812B_Write(&ws2812b);
 800065c:	4802      	ldr	r0, [pc, #8]	; (8000668 <set_led+0x1c>)
}
 800065e:	bc10      	pop	{r4}
	WS2812B_Write(&ws2812b);
 8000660:	f7ff bdca 	b.w	80001f8 <WS2812B_Write>
 8000664:	2000003c 	.word	0x2000003c
 8000668:	20000000 	.word	0x20000000

0800066c <set_all_leds>:
{
 800066c:	e92d 43f8 	stmdb	sp!, {r3, r4, r5, r6, r7, r8, r9, lr}
 8000670:	4681      	mov	r9, r0
 8000672:	4688      	mov	r8, r1
 8000674:	4617      	mov	r7, r2
 8000676:	4c08      	ldr	r4, [pc, #32]	; (8000698 <set_all_leds+0x2c>)
	WS2812B_Write(&ws2812b);
 8000678:	4e08      	ldr	r6, [pc, #32]	; (800069c <set_all_leds+0x30>)
 800067a:	f104 050c 	add.w	r5, r4, #12
	leds[ledIndex].r = red;
 800067e:	f884 9000 	strb.w	r9, [r4]
	leds[ledIndex].g = green;
 8000682:	f884 8001 	strb.w	r8, [r4, #1]
	leds[ledIndex].b = blue;
 8000686:	70a7      	strb	r7, [r4, #2]
	WS2812B_Write(&ws2812b);
 8000688:	4630      	mov	r0, r6
 800068a:	3403      	adds	r4, #3
 800068c:	f7ff fdb4 	bl	80001f8 <WS2812B_Write>
	for (uint8_t led = 0; led < NUMBER_OF_LEDS; led++)
 8000690:	42ac      	cmp	r4, r5
 8000692:	d1f4      	bne.n	800067e <set_all_leds+0x12>
}
 8000694:	e8bd 83f8 	ldmia.w	sp!, {r3, r4, r5, r6, r7, r8, r9, pc}
 8000698:	2000003c 	.word	0x2000003c
 800069c:	20000000 	.word	0x20000000

080006a0 <SystemClock_Config>:
/**
  * @brief System Clock Configuration
  * @retval None
  */
void SystemClock_Config(void)
{
 80006a0:	b530      	push	{r4, r5, lr}
  RCC_OscInitTypeDef RCC_OscInitStruct = {0};
  RCC_ClkInitTypeDef RCC_ClkInitStruct = {0};

  /** Initializes the CPU, AHB and APB busses clocks 
  */
  RCC_OscInitStruct.OscillatorType = RCC_OSCILLATORTYPE_HSE;
 80006a2:	2201      	movs	r2, #1
  RCC_OscInitTypeDef RCC_OscInitStruct = {0};
 80006a4:	2400      	movs	r4, #0
  RCC_OscInitStruct.HSEState = RCC_HSE_ON;
 80006a6:	f44f 3380 	mov.w	r3, #65536	; 0x10000
  RCC_OscInitStruct.HSEPredivValue = RCC_HSE_PREDIV_DIV1;
  RCC_OscInitStruct.HSIState = RCC_HSI_ON;
  RCC_OscInitStruct.PLL.PLLState = RCC_PLL_ON;
 80006aa:	2502      	movs	r5, #2
  RCC_OscInitStruct.PLL.PLLSource = RCC_PLLSOURCE_HSE;
  RCC_OscInitStruct.PLL.PLLMUL = RCC_PLL_MUL9;
 80006ac:	f44f 11e0 	mov.w	r1, #1835008	; 0x1c0000
{
 80006b0:	b091      	sub	sp, #68	; 0x44
  if (HAL_RCC_OscConfig(&RCC_OscInitStruct) != HAL_OK)
 80006b2:	a806      	add	r0, sp, #24
  RCC_OscInitStruct.OscillatorType = RCC_OSCILLATORTYPE_HSE;
 80006b4:	9206      	str	r2, [sp, #24]
  RCC_OscInitStruct.HSIState = RCC_HSI_ON;
 80006b6:	920a      	str	r2, [sp, #40]	; 0x28
  RCC_OscInitStruct.HSEState = RCC_HSE_ON;
 80006b8:	9307      	str	r3, [sp, #28]
  RCC_OscInitStruct.PLL.PLLState = RCC_PLL_ON;
 80006ba:	e9cd 530d 	strd	r5, r3, [sp, #52]	; 0x34
  RCC_OscInitStruct.PLL.PLLMUL = RCC_PLL_MUL9;
 80006be:	910f      	str	r1, [sp, #60]	; 0x3c
  RCC_OscInitTypeDef RCC_OscInitStruct = {0};
 80006c0:	9408      	str	r4, [sp, #32]
  RCC_ClkInitTypeDef RCC_ClkInitStruct = {0};
 80006c2:	9401      	str	r4, [sp, #4]
  RCC_OscInitTypeDef RCC_OscInitStruct = {0};
 80006c4:	9409      	str	r4, [sp, #36]	; 0x24
 80006c6:	e9cd 440b 	strd	r4, r4, [sp, #44]	; 0x2c
  RCC_ClkInitTypeDef RCC_ClkInitStruct = {0};
 80006ca:	e9cd 4402 	strd	r4, r4, [sp, #8]
 80006ce:	e9cd 4404 	strd	r4, r4, [sp, #16]
  if (HAL_RCC_OscConfig(&RCC_OscInitStruct) != HAL_OK)
 80006d2:	f000 fa6b 	bl	8000bac <HAL_RCC_OscConfig>
  {
    Error_Handler();
  }
  /** Initializes the CPU, AHB and APB busses clocks 
  */
  RCC_ClkInitStruct.ClockType = RCC_CLOCKTYPE_HCLK|RCC_CLOCKTYPE_SYSCLK
 80006d6:	220f      	movs	r2, #15
                              |RCC_CLOCKTYPE_PCLK1|RCC_CLOCKTYPE_PCLK2;
  RCC_ClkInitStruct.SYSCLKSource = RCC_SYSCLKSOURCE_PLLCLK;
  RCC_ClkInitStruct.AHBCLKDivider = RCC_SYSCLK_DIV1;
  RCC_ClkInitStruct.APB1CLKDivider = RCC_HCLK_DIV2;
 80006d8:	f44f 6380 	mov.w	r3, #1024	; 0x400
  RCC_ClkInitStruct.APB2CLKDivider = RCC_HCLK_DIV1;

  if (HAL_RCC_ClockConfig(&RCC_ClkInitStruct, FLASH_LATENCY_2) != HAL_OK)
 80006dc:	a801      	add	r0, sp, #4
 80006de:	4629      	mov	r1, r5
  RCC_ClkInitStruct.AHBCLKDivider = RCC_SYSCLK_DIV1;
 80006e0:	e9cd 5402 	strd	r5, r4, [sp, #8]
  RCC_ClkInitStruct.APB2CLKDivider = RCC_HCLK_DIV1;
 80006e4:	9405      	str	r4, [sp, #20]
  RCC_ClkInitStruct.ClockType = RCC_CLOCKTYPE_HCLK|RCC_CLOCKTYPE_SYSCLK
 80006e6:	9201      	str	r2, [sp, #4]
  RCC_ClkInitStruct.APB1CLKDivider = RCC_HCLK_DIV2;
 80006e8:	9304      	str	r3, [sp, #16]
  if (HAL_RCC_ClockConfig(&RCC_ClkInitStruct, FLASH_LATENCY_2) != HAL_OK)
 80006ea:	f000 fc57 	bl	8000f9c <HAL_RCC_ClockConfig>
  {
    Error_Handler();
  }
}
 80006ee:	b011      	add	sp, #68	; 0x44
 80006f0:	bd30      	pop	{r4, r5, pc}
 80006f2:	bf00      	nop

080006f4 <main>:
{
 80006f4:	b530      	push	{r4, r5, lr}
  * @param None
  * @retval None
  */
static void MX_GPIO_Init(void)
{
  GPIO_InitTypeDef GPIO_InitStruct = {0};
 80006f6:	2400      	movs	r4, #0
{
 80006f8:	b089      	sub	sp, #36	; 0x24
  HAL_Init();
 80006fa:	f000 f8c3 	bl	8000884 <HAL_Init>
  SystemClock_Config();
 80006fe:	f7ff ffcf 	bl	80006a0 <SystemClock_Config>
  GPIO_InitTypeDef GPIO_InitStruct = {0};
 8000702:	e9cd 4404 	strd	r4, r4, [sp, #16]
 8000706:	e9cd 4406 	strd	r4, r4, [sp, #24]

  /* GPIO Ports Clock Enable */
  __HAL_RCC_GPIOD_CLK_ENABLE();
 800070a:	4b1c      	ldr	r3, [pc, #112]	; (800077c <main+0x88>)
  __HAL_RCC_GPIOA_CLK_ENABLE();
  __HAL_RCC_GPIOB_CLK_ENABLE();

  /*Configure GPIO pin Output Level */
  HAL_GPIO_WritePin(GPIOB, GPIO_PIN_3, GPIO_PIN_SET);
 800070c:	2201      	movs	r2, #1
  __HAL_RCC_GPIOD_CLK_ENABLE();
 800070e:	6999      	ldr	r1, [r3, #24]

  /*Configure GPIO pin : PB3 */
  GPIO_InitStruct.Pin = GPIO_PIN_3;
 8000710:	2508      	movs	r5, #8
  __HAL_RCC_GPIOD_CLK_ENABLE();
 8000712:	f041 0120 	orr.w	r1, r1, #32
 8000716:	6199      	str	r1, [r3, #24]
  HAL_GPIO_WritePin(GPIOB, GPIO_PIN_3, GPIO_PIN_SET);
 8000718:	2108      	movs	r1, #8
  __HAL_RCC_GPIOD_CLK_ENABLE();
 800071a:	6998      	ldr	r0, [r3, #24]
 800071c:	f000 0020 	and.w	r0, r0, #32
 8000720:	9001      	str	r0, [sp, #4]
 8000722:	9801      	ldr	r0, [sp, #4]
  __HAL_RCC_GPIOA_CLK_ENABLE();
 8000724:	6998      	ldr	r0, [r3, #24]
 8000726:	f040 0004 	orr.w	r0, r0, #4
 800072a:	6198      	str	r0, [r3, #24]
 800072c:	6998      	ldr	r0, [r3, #24]
 800072e:	f000 0004 	and.w	r0, r0, #4
 8000732:	9002      	str	r0, [sp, #8]
 8000734:	9802      	ldr	r0, [sp, #8]
  __HAL_RCC_GPIOB_CLK_ENABLE();
 8000736:	6998      	ldr	r0, [r3, #24]
 8000738:	4308      	orrs	r0, r1
 800073a:	6198      	str	r0, [r3, #24]
 800073c:	699b      	ldr	r3, [r3, #24]
  HAL_GPIO_WritePin(GPIOB, GPIO_PIN_3, GPIO_PIN_SET);
 800073e:	4810      	ldr	r0, [pc, #64]	; (8000780 <main+0x8c>)
  __HAL_RCC_GPIOB_CLK_ENABLE();
 8000740:	400b      	ands	r3, r1
 8000742:	9303      	str	r3, [sp, #12]
 8000744:	9b03      	ldr	r3, [sp, #12]
  HAL_GPIO_WritePin(GPIOB, GPIO_PIN_3, GPIO_PIN_SET);
 8000746:	f000 fa2d 	bl	8000ba4 <HAL_GPIO_WritePin>
  GPIO_InitStruct.Mode = GPIO_MODE_OUTPUT_PP;
 800074a:	2201      	movs	r2, #1
  GPIO_InitStruct.Pull = GPIO_NOPULL;
  GPIO_InitStruct.Speed = GPIO_SPEED_FREQ_HIGH;
 800074c:	2303      	movs	r3, #3
  HAL_GPIO_Init(GPIOB, &GPIO_InitStruct);
 800074e:	a904      	add	r1, sp, #16
 8000750:	480b      	ldr	r0, [pc, #44]	; (8000780 <main+0x8c>)
  GPIO_InitStruct.Pull = GPIO_NOPULL;
 8000752:	9406      	str	r4, [sp, #24]
  GPIO_InitStruct.Mode = GPIO_MODE_OUTPUT_PP;
 8000754:	e9cd 5204 	strd	r5, r2, [sp, #16]
  GPIO_InitStruct.Speed = GPIO_SPEED_FREQ_HIGH;
 8000758:	9307      	str	r3, [sp, #28]
  HAL_GPIO_Init(GPIOB, &GPIO_InitStruct);
 800075a:	f000 f929 	bl	80009b0 <HAL_GPIO_Init>
{
 800075e:	2404      	movs	r4, #4
    		running_example();
 8000760:	f7ff fcf4 	bl	800014c <running_example>
    		HAL_Delay(1000);
 8000764:	f44f 707a 	mov.w	r0, #1000	; 0x3e8
 8000768:	f000 f8b0 	bl	80008cc <HAL_Delay>
 800076c:	1e63      	subs	r3, r4, #1
    	for(uint8_t i = 0; i < 4; i ++){
 800076e:	f013 04ff 	ands.w	r4, r3, #255	; 0xff
 8000772:	d1f5      	bne.n	8000760 <main+0x6c>
        running_example_2();
 8000774:	f7ff fd10 	bl	8000198 <running_example_2>
    	for(uint8_t i = 0; i < 4; i ++){
 8000778:	e7f1      	b.n	800075e <main+0x6a>
 800077a:	bf00      	nop
 800077c:	40021000 	.word	0x40021000
 8000780:	40010c00 	.word	0x40010c00

08000784 <HAL_MspInit>:
{
  /* USER CODE BEGIN MspInit 0 */

  /* USER CODE END MspInit 0 */

  __HAL_RCC_AFIO_CLK_ENABLE();
 8000784:	4b0e      	ldr	r3, [pc, #56]	; (80007c0 <HAL_MspInit+0x3c>)
{
 8000786:	b082      	sub	sp, #8
  __HAL_RCC_AFIO_CLK_ENABLE();
 8000788:	699a      	ldr	r2, [r3, #24]

  /* System interrupt init*/

  /** NOJTAG: JTAG-DP Disabled and SW-DP Enabled 
  */
  __HAL_AFIO_REMAP_SWJ_NOJTAG();
 800078a:	490e      	ldr	r1, [pc, #56]	; (80007c4 <HAL_MspInit+0x40>)
  __HAL_RCC_AFIO_CLK_ENABLE();
 800078c:	f042 0201 	orr.w	r2, r2, #1
 8000790:	619a      	str	r2, [r3, #24]
 8000792:	699a      	ldr	r2, [r3, #24]
 8000794:	f002 0201 	and.w	r2, r2, #1
 8000798:	9200      	str	r2, [sp, #0]
 800079a:	9a00      	ldr	r2, [sp, #0]
  __HAL_RCC_PWR_CLK_ENABLE();
 800079c:	69da      	ldr	r2, [r3, #28]
 800079e:	f042 5280 	orr.w	r2, r2, #268435456	; 0x10000000
 80007a2:	61da      	str	r2, [r3, #28]
 80007a4:	69db      	ldr	r3, [r3, #28]
 80007a6:	f003 5380 	and.w	r3, r3, #268435456	; 0x10000000
 80007aa:	9301      	str	r3, [sp, #4]
 80007ac:	9b01      	ldr	r3, [sp, #4]
  __HAL_AFIO_REMAP_SWJ_NOJTAG();
 80007ae:	684b      	ldr	r3, [r1, #4]
 80007b0:	f023 63e0 	bic.w	r3, r3, #117440512	; 0x7000000
 80007b4:	f043 7300 	orr.w	r3, r3, #33554432	; 0x2000000
 80007b8:	604b      	str	r3, [r1, #4]

  /* USER CODE BEGIN MspInit 1 */

  /* USER CODE END MspInit 1 */
}
 80007ba:	b002      	add	sp, #8
 80007bc:	4770      	bx	lr
 80007be:	bf00      	nop
 80007c0:	40021000 	.word	0x40021000
 80007c4:	40010000 	.word	0x40010000

080007c8 <NMI_Handler>:

  /* USER CODE END NonMaskableInt_IRQn 0 */
  /* USER CODE BEGIN NonMaskableInt_IRQn 1 */

  /* USER CODE END NonMaskableInt_IRQn 1 */
}
 80007c8:	4770      	bx	lr
 80007ca:	bf00      	nop

080007cc <HardFault_Handler>:

/**
  * @brief This function handles Hard fault interrupt.
  */
void HardFault_Handler(void)
{
 80007cc:	e7fe      	b.n	80007cc <HardFault_Handler>
 80007ce:	bf00      	nop

080007d0 <MemManage_Handler>:

/**
  * @brief This function handles Memory management fault.
  */
void MemManage_Handler(void)
{
 80007d0:	e7fe      	b.n	80007d0 <MemManage_Handler>
 80007d2:	bf00      	nop

080007d4 <BusFault_Handler>:

/**
  * @brief This function handles Prefetch fault, memory access fault.
  */
void BusFault_Handler(void)
{
 80007d4:	e7fe      	b.n	80007d4 <BusFault_Handler>
 80007d6:	bf00      	nop

080007d8 <UsageFault_Handler>:

/**
  * @brief This function handles Undefined instruction or illegal state.
  */
void UsageFault_Handler(void)
{
 80007d8:	e7fe      	b.n	80007d8 <UsageFault_Handler>
 80007da:	bf00      	nop

080007dc <SVC_Handler>:
 80007dc:	4770      	bx	lr
 80007de:	bf00      	nop

080007e0 <DebugMon_Handler>:
 80007e0:	4770      	bx	lr
 80007e2:	bf00      	nop

080007e4 <PendSV_Handler>:
 80007e4:	4770      	bx	lr
 80007e6:	bf00      	nop

080007e8 <SysTick_Handler>:
void SysTick_Handler(void)
{
  /* USER CODE BEGIN SysTick_IRQn 0 */

  /* USER CODE END SysTick_IRQn 0 */
  HAL_IncTick();
 80007e8:	f000 b85e 	b.w	80008a8 <HAL_IncTick>

080007ec <SystemInit>:

  /* Configure the Vector Table location -------------------------------------*/
#if defined(USER_VECT_TAB_ADDRESS)
  SCB->VTOR = VECT_TAB_BASE_ADDRESS | VECT_TAB_OFFSET; /* Vector Table Relocation in Internal SRAM. */
#endif /* USER_VECT_TAB_ADDRESS */
}
 80007ec:	4770      	bx	lr
 80007ee:	bf00      	nop

080007f0 <Reset_Handler>:
  .weak Reset_Handler
  .type Reset_Handler, %function
Reset_Handler:

/* Copy the data segment initializers from flash to SRAM */
  ldr r0, =_sdata
 80007f0:	480c      	ldr	r0, [pc, #48]	; (8000824 <LoopFillZerobss+0x12>)
  ldr r1, =_edata
 80007f2:	490d      	ldr	r1, [pc, #52]	; (8000828 <LoopFillZerobss+0x16>)
  ldr r2, =_sidata
 80007f4:	4a0d      	ldr	r2, [pc, #52]	; (800082c <LoopFillZerobss+0x1a>)
  movs r3, #0
 80007f6:	2300      	movs	r3, #0
  b LoopCopyDataInit
 80007f8:	e002      	b.n	8000800 <LoopCopyDataInit>

080007fa <CopyDataInit>:

CopyDataInit:
  ldr r4, [r2, r3]
 80007fa:	58d4      	ldr	r4, [r2, r3]
  str r4, [r0, r3]
 80007fc:	50c4      	str	r4, [r0, r3]
  adds r3, r3, #4
 80007fe:	3304      	adds	r3, #4

08000800 <LoopCopyDataInit>:

LoopCopyDataInit:
  adds r4, r0, r3
 8000800:	18c4      	adds	r4, r0, r3
  cmp r4, r1
 8000802:	428c      	cmp	r4, r1
  bcc CopyDataInit
 8000804:	d3f9      	bcc.n	80007fa <CopyDataInit>
  
/* Zero fill the bss segment. */
  ldr r2, =_sbss
 8000806:	4a0a      	ldr	r2, [pc, #40]	; (8000830 <LoopFillZerobss+0x1e>)
  ldr r4, =_ebss
 8000808:	4c0a      	ldr	r4, [pc, #40]	; (8000834 <LoopFillZerobss+0x22>)
  movs r3, #0
 800080a:	2300      	movs	r3, #0
  b LoopFillZerobss
 800080c:	e001      	b.n	8000812 <LoopFillZerobss>

0800080e <FillZerobss>:

FillZerobss:
  str  r3, [r2]
 800080e:	6013      	str	r3, [r2, #0]
  adds r2, r2, #4
 8000810:	3204      	adds	r2, #4

08000812 <LoopFillZerobss>:

LoopFillZerobss:
  cmp r2, r4
 8000812:	42a2      	cmp	r2, r4
  bcc FillZerobss
 8000814:	d3fb      	bcc.n	800080e <FillZerobss>

/* Call the clock system intitialization function.*/
    bl  SystemInit
 8000816:	f7ff ffe9 	bl	80007ec <SystemInit>
/* Call static constructors */
    bl __libc_init_array
 800081a:	f000 fc8b 	bl	8001134 <__libc_init_array>
/* Call the application's entry point.*/
  bl main
 800081e:	f7ff ff69 	bl	80006f4 <main>
  bx lr
 8000822:	4770      	bx	lr
  ldr r0, =_sdata
 8000824:	20000000 	.word	0x20000000
  ldr r1, =_edata
 8000828:	2000001c 	.word	0x2000001c
  ldr r2, =_sidata
 800082c:	080011bc 	.word	0x080011bc
  ldr r2, =_sbss
 8000830:	2000001c 	.word	0x2000001c
  ldr r4, =_ebss
 8000834:	2000004c 	.word	0x2000004c

08000838 <ADC1_2_IRQHandler>:
 * @retval : None
*/
    .section .text.Default_Handler,"ax",%progbits
Default_Handler:
Infinite_Loop:
  b Infinite_Loop
 8000838:	e7fe      	b.n	8000838 <ADC1_2_IRQHandler>
	...

0800083c <HAL_InitTick>:
  *       implementation  in user file.
  * @param TickPriority Tick interrupt priority.
  * @retval HAL status
  */
__weak HAL_StatusTypeDef HAL_InitTick(uint32_t TickPriority)
{
 800083c:	b538      	push	{r3, r4, r5, lr}
  /* Configure the SysTick to have interrupt in 1ms time basis*/
  if (HAL_SYSTICK_Config(SystemCoreClock / (1000U / uwTickFreq)) > 0U)
 800083e:	f44f 737a 	mov.w	r3, #1000	; 0x3e8
 8000842:	490d      	ldr	r1, [pc, #52]	; (8000878 <HAL_InitTick+0x3c>)
 8000844:	4a0d      	ldr	r2, [pc, #52]	; (800087c <HAL_InitTick+0x40>)
 8000846:	7809      	ldrb	r1, [r1, #0]
 8000848:	6812      	ldr	r2, [r2, #0]
 800084a:	fbb3 f3f1 	udiv	r3, r3, r1
{
 800084e:	4605      	mov	r5, r0
  if (HAL_SYSTICK_Config(SystemCoreClock / (1000U / uwTickFreq)) > 0U)
 8000850:	fbb2 f0f3 	udiv	r0, r2, r3
 8000854:	f000 f894 	bl	8000980 <HAL_SYSTICK_Config>
 8000858:	b908      	cbnz	r0, 800085e <HAL_InitTick+0x22>
  {
    return HAL_ERROR;
  }

  /* Configure the SysTick IRQ priority */
  if (TickPriority < (1UL << __NVIC_PRIO_BITS))
 800085a:	2d0f      	cmp	r5, #15
 800085c:	d901      	bls.n	8000862 <HAL_InitTick+0x26>
    return HAL_ERROR;
 800085e:	2001      	movs	r0, #1
    return HAL_ERROR;
  }

  /* Return function status */
  return HAL_OK;
}
 8000860:	bd38      	pop	{r3, r4, r5, pc}
 8000862:	4604      	mov	r4, r0
    HAL_NVIC_SetPriority(SysTick_IRQn, TickPriority, 0U);
 8000864:	4602      	mov	r2, r0
 8000866:	4629      	mov	r1, r5
 8000868:	f04f 30ff 	mov.w	r0, #4294967295
 800086c:	f000 f852 	bl	8000914 <HAL_NVIC_SetPriority>
    uwTickPrio = TickPriority;
 8000870:	4b03      	ldr	r3, [pc, #12]	; (8000880 <HAL_InitTick+0x44>)
 8000872:	4620      	mov	r0, r4
 8000874:	601d      	str	r5, [r3, #0]
}
 8000876:	bd38      	pop	{r3, r4, r5, pc}
 8000878:	20000014 	.word	0x20000014
 800087c:	20000010 	.word	0x20000010
 8000880:	20000018 	.word	0x20000018

08000884 <HAL_Init>:
  __HAL_FLASH_PREFETCH_BUFFER_ENABLE();
 8000884:	4a07      	ldr	r2, [pc, #28]	; (80008a4 <HAL_Init+0x20>)
{
 8000886:	b508      	push	{r3, lr}
  __HAL_FLASH_PREFETCH_BUFFER_ENABLE();
 8000888:	6813      	ldr	r3, [r2, #0]
  HAL_NVIC_SetPriorityGrouping(NVIC_PRIORITYGROUP_4);
 800088a:	2003      	movs	r0, #3
  __HAL_FLASH_PREFETCH_BUFFER_ENABLE();
 800088c:	f043 0310 	orr.w	r3, r3, #16
 8000890:	6013      	str	r3, [r2, #0]
  HAL_NVIC_SetPriorityGrouping(NVIC_PRIORITYGROUP_4);
 8000892:	f000 f82d 	bl	80008f0 <HAL_NVIC_SetPriorityGrouping>
  HAL_InitTick(TICK_INT_PRIORITY);
 8000896:	2000      	movs	r0, #0
 8000898:	f7ff ffd0 	bl	800083c <HAL_InitTick>
  HAL_MspInit();
 800089c:	f7ff ff72 	bl	8000784 <HAL_MspInit>
}
 80008a0:	2000      	movs	r0, #0
 80008a2:	bd08      	pop	{r3, pc}
 80008a4:	40022000 	.word	0x40022000

080008a8 <HAL_IncTick>:
  *      implementations in user file.
  * @retval None
  */
__weak void HAL_IncTick(void)
{
  uwTick += uwTickFreq;
 80008a8:	4a03      	ldr	r2, [pc, #12]	; (80008b8 <HAL_IncTick+0x10>)
 80008aa:	4b04      	ldr	r3, [pc, #16]	; (80008bc <HAL_IncTick+0x14>)
 80008ac:	6811      	ldr	r1, [r2, #0]
 80008ae:	781b      	ldrb	r3, [r3, #0]
 80008b0:	440b      	add	r3, r1
 80008b2:	6013      	str	r3, [r2, #0]
}
 80008b4:	4770      	bx	lr
 80008b6:	bf00      	nop
 80008b8:	20000048 	.word	0x20000048
 80008bc:	20000014 	.word	0x20000014

080008c0 <HAL_GetTick>:
  *       implementations in user file.
  * @retval tick value
  */
__weak uint32_t HAL_GetTick(void)
{
  return uwTick;
 80008c0:	4b01      	ldr	r3, [pc, #4]	; (80008c8 <HAL_GetTick+0x8>)
 80008c2:	6818      	ldr	r0, [r3, #0]
}
 80008c4:	4770      	bx	lr
 80008c6:	bf00      	nop
 80008c8:	20000048 	.word	0x20000048

080008cc <HAL_Delay>:
  *       implementations in user file.
  * @param Delay specifies the delay time length, in milliseconds.
  * @retval None
  */
__weak void HAL_Delay(uint32_t Delay)
{
 80008cc:	b538      	push	{r3, r4, r5, lr}
 80008ce:	4604      	mov	r4, r0
  uint32_t tickstart = HAL_GetTick();
 80008d0:	f7ff fff6 	bl	80008c0 <HAL_GetTick>
  uint32_t wait = Delay;

  /* Add a freq to guarantee minimum wait */
  if (wait < HAL_MAX_DELAY)
 80008d4:	1c63      	adds	r3, r4, #1
  uint32_t tickstart = HAL_GetTick();
 80008d6:	4605      	mov	r5, r0
  if (wait < HAL_MAX_DELAY)
 80008d8:	d002      	beq.n	80008e0 <HAL_Delay+0x14>
  {
    wait += (uint32_t)(uwTickFreq);
 80008da:	4b04      	ldr	r3, [pc, #16]	; (80008ec <HAL_Delay+0x20>)
 80008dc:	781b      	ldrb	r3, [r3, #0]
 80008de:	441c      	add	r4, r3
  }

  while ((HAL_GetTick() - tickstart) < wait)
 80008e0:	f7ff ffee 	bl	80008c0 <HAL_GetTick>
 80008e4:	1b40      	subs	r0, r0, r5
 80008e6:	42a0      	cmp	r0, r4
 80008e8:	d3fa      	bcc.n	80008e0 <HAL_Delay+0x14>
  {
  }
}
 80008ea:	bd38      	pop	{r3, r4, r5, pc}
 80008ec:	20000014 	.word	0x20000014

080008f0 <HAL_NVIC_SetPriorityGrouping>:
{
  uint32_t reg_value;
  uint32_t PriorityGroupTmp = (PriorityGroup & (uint32_t)0x07UL);             /* only values 0..7 are used          */

  reg_value  =  SCB->AIRCR;                                                   /* read old register configuration    */
  reg_value &= ~((uint32_t)(SCB_AIRCR_VECTKEY_Msk | SCB_AIRCR_PRIGROUP_Msk)); /* clear bits to change               */
 80008f0:	f64f 01ff 	movw	r1, #63743	; 0xf8ff
  reg_value  =  SCB->AIRCR;                                                   /* read old register configuration    */
 80008f4:	4a06      	ldr	r2, [pc, #24]	; (8000910 <HAL_NVIC_SetPriorityGrouping+0x20>)
  reg_value  =  (reg_value                                   |
                ((uint32_t)0x5FAUL << SCB_AIRCR_VECTKEY_Pos) |
                (PriorityGroupTmp << SCB_AIRCR_PRIGROUP_Pos) );               /* Insert write key and priority group */
 80008f6:	0200      	lsls	r0, r0, #8
  reg_value  =  SCB->AIRCR;                                                   /* read old register configuration    */
 80008f8:	68d3      	ldr	r3, [r2, #12]
                (PriorityGroupTmp << SCB_AIRCR_PRIGROUP_Pos) );               /* Insert write key and priority group */
 80008fa:	f400 60e0 	and.w	r0, r0, #1792	; 0x700
  reg_value &= ~((uint32_t)(SCB_AIRCR_VECTKEY_Msk | SCB_AIRCR_PRIGROUP_Msk)); /* clear bits to change               */
 80008fe:	400b      	ands	r3, r1
 8000900:	f043 63bf 	orr.w	r3, r3, #100139008	; 0x5f80000
 8000904:	f443 3300 	orr.w	r3, r3, #131072	; 0x20000
  reg_value  =  (reg_value                                   |
 8000908:	4303      	orrs	r3, r0
  SCB->AIRCR =  reg_value;
 800090a:	60d3      	str	r3, [r2, #12]
  /* Check the parameters */
  assert_param(IS_NVIC_PRIORITY_GROUP(PriorityGroup));
  
  /* Set the PRIGROUP[10:8] bits according to the PriorityGroup parameter value */
  NVIC_SetPriorityGrouping(PriorityGroup);
}
 800090c:	4770      	bx	lr
 800090e:	bf00      	nop
 8000910:	e000ed00 	.word	0xe000ed00

08000914 <HAL_NVIC_SetPriority>:
  \details Reads the priority grouping field from the NVIC Interrupt Controller.
  \return                Priority grouping field (SCB->AIRCR [10:8] PRIGROUP field).
 */
__STATIC_INLINE uint32_t __NVIC_GetPriorityGrouping(void)
{
  return ((uint32_t)((SCB->AIRCR & SCB_AIRCR_PRIGROUP_Msk) >> SCB_AIRCR_PRIGROUP_Pos));
 8000914:	4b18      	ldr	r3, [pc, #96]	; (8000978 <HAL_NVIC_SetPriority+0x64>)
  *         This parameter can be a value between 0 and 15
  *         A lower priority value indicates a higher priority.          
  * @retval None
  */
void HAL_NVIC_SetPriority(IRQn_Type IRQn, uint32_t PreemptPriority, uint32_t SubPriority)
{ 
 8000916:	b430      	push	{r4, r5}
 8000918:	68db      	ldr	r3, [r3, #12]
 800091a:	f3c3 2302 	ubfx	r3, r3, #8, #3
{
  uint32_t PriorityGroupTmp = (PriorityGroup & (uint32_t)0x07UL);   /* only values 0..7 are used          */
  uint32_t PreemptPriorityBits;
  uint32_t SubPriorityBits;

  PreemptPriorityBits = ((7UL - PriorityGroupTmp) > (uint32_t)(__NVIC_PRIO_BITS)) ? (uint32_t)(__NVIC_PRIO_BITS) : (uint32_t)(7UL - PriorityGroupTmp);
 800091e:	f1c3 0507 	rsb	r5, r3, #7
 8000922:	2d04      	cmp	r5, #4
  SubPriorityBits     = ((PriorityGroupTmp + (uint32_t)(__NVIC_PRIO_BITS)) < (uint32_t)7UL) ? (uint32_t)0UL : (uint32_t)((PriorityGroupTmp - 7UL) + (uint32_t)(__NVIC_PRIO_BITS));
 8000924:	f103 0404 	add.w	r4, r3, #4
  PreemptPriorityBits = ((7UL - PriorityGroupTmp) > (uint32_t)(__NVIC_PRIO_BITS)) ? (uint32_t)(__NVIC_PRIO_BITS) : (uint32_t)(7UL - PriorityGroupTmp);
 8000928:	bf28      	it	cs
 800092a:	2504      	movcs	r5, #4
  SubPriorityBits     = ((PriorityGroupTmp + (uint32_t)(__NVIC_PRIO_BITS)) < (uint32_t)7UL) ? (uint32_t)0UL : (uint32_t)((PriorityGroupTmp - 7UL) + (uint32_t)(__NVIC_PRIO_BITS));
 800092c:	2c06      	cmp	r4, #6
 800092e:	d919      	bls.n	8000964 <HAL_NVIC_SetPriority+0x50>
 8000930:	f04f 34ff 	mov.w	r4, #4294967295
 8000934:	3b03      	subs	r3, #3
 8000936:	409c      	lsls	r4, r3
 8000938:	ea22 0404 	bic.w	r4, r2, r4

  return (
           ((PreemptPriority & (uint32_t)((1UL << (PreemptPriorityBits)) - 1UL)) << SubPriorityBits) |
 800093c:	f04f 32ff 	mov.w	r2, #4294967295
 8000940:	40aa      	lsls	r2, r5
 8000942:	ea21 0102 	bic.w	r1, r1, r2
 8000946:	fa01 f203 	lsl.w	r2, r1, r3
 800094a:	4322      	orrs	r2, r4
 800094c:	0112      	lsls	r2, r2, #4
  if ((int32_t)(IRQn) >= 0)
 800094e:	2800      	cmp	r0, #0
 8000950:	b2d2      	uxtb	r2, r2
 8000952:	db0a      	blt.n	800096a <HAL_NVIC_SetPriority+0x56>
    NVIC->IP[((uint32_t)IRQn)]               = (uint8_t)((priority << (8U - __NVIC_PRIO_BITS)) & (uint32_t)0xFFUL);
 8000954:	f100 4060 	add.w	r0, r0, #3758096384	; 0xe0000000
 8000958:	f500 4061 	add.w	r0, r0, #57600	; 0xe100
 800095c:	f880 2300 	strb.w	r2, [r0, #768]	; 0x300
  assert_param(IS_NVIC_PREEMPTION_PRIORITY(PreemptPriority));
  
  prioritygroup = NVIC_GetPriorityGrouping();
  
  NVIC_SetPriority(IRQn, NVIC_EncodePriority(prioritygroup, PreemptPriority, SubPriority));
}
 8000960:	bc30      	pop	{r4, r5}
 8000962:	4770      	bx	lr
  SubPriorityBits     = ((PriorityGroupTmp + (uint32_t)(__NVIC_PRIO_BITS)) < (uint32_t)7UL) ? (uint32_t)0UL : (uint32_t)((PriorityGroupTmp - 7UL) + (uint32_t)(__NVIC_PRIO_BITS));
 8000964:	2400      	movs	r4, #0
 8000966:	4623      	mov	r3, r4
 8000968:	e7e8      	b.n	800093c <HAL_NVIC_SetPriority+0x28>
    SCB->SHP[(((uint32_t)IRQn) & 0xFUL)-4UL] = (uint8_t)((priority << (8U - __NVIC_PRIO_BITS)) & (uint32_t)0xFFUL);
 800096a:	4b04      	ldr	r3, [pc, #16]	; (800097c <HAL_NVIC_SetPriority+0x68>)
 800096c:	f000 000f 	and.w	r0, r0, #15
 8000970:	4403      	add	r3, r0
 8000972:	761a      	strb	r2, [r3, #24]
 8000974:	bc30      	pop	{r4, r5}
 8000976:	4770      	bx	lr
 8000978:	e000ed00 	.word	0xe000ed00
 800097c:	e000ecfc 	.word	0xe000ecfc

08000980 <HAL_SYSTICK_Config>:
           function <b>SysTick_Config</b> is not included. In this case, the file <b><i>device</i>.h</b>
           must contain a vendor-specific implementation of this function.
 */
__STATIC_INLINE uint32_t SysTick_Config(uint32_t ticks)
{
  if ((ticks - 1UL) > SysTick_LOAD_RELOAD_Msk)
 8000980:	3801      	subs	r0, #1
 8000982:	f1b0 7f80 	cmp.w	r0, #16777216	; 0x1000000
 8000986:	d20d      	bcs.n	80009a4 <HAL_SYSTICK_Config+0x24>
  * @param  TicksNumb: Specifies the ticks Number of ticks between two interrupts.
  * @retval status:  - 0  Function succeeded.
  *                  - 1  Function failed.
  */
uint32_t HAL_SYSTICK_Config(uint32_t TicksNumb)
{
 8000988:	b430      	push	{r4, r5}
    SCB->SHP[(((uint32_t)IRQn) & 0xFUL)-4UL] = (uint8_t)((priority << (8U - __NVIC_PRIO_BITS)) & (uint32_t)0xFFUL);
 800098a:	25f0      	movs	r5, #240	; 0xf0
    return (1UL);                                                   /* Reload value impossible */
  }

  SysTick->LOAD  = (uint32_t)(ticks - 1UL);                         /* set reload register */
  NVIC_SetPriority (SysTick_IRQn, (1UL << __NVIC_PRIO_BITS) - 1UL); /* set Priority for Systick Interrupt */
  SysTick->VAL   = 0UL;                                             /* Load the SysTick Counter Value */
 800098c:	2200      	movs	r2, #0
  SysTick->CTRL  = SysTick_CTRL_CLKSOURCE_Msk |
 800098e:	2107      	movs	r1, #7
  SysTick->LOAD  = (uint32_t)(ticks - 1UL);                         /* set reload register */
 8000990:	4b05      	ldr	r3, [pc, #20]	; (80009a8 <HAL_SYSTICK_Config+0x28>)
    SCB->SHP[(((uint32_t)IRQn) & 0xFUL)-4UL] = (uint8_t)((priority << (8U - __NVIC_PRIO_BITS)) & (uint32_t)0xFFUL);
 8000992:	4c06      	ldr	r4, [pc, #24]	; (80009ac <HAL_SYSTICK_Config+0x2c>)
  SysTick->LOAD  = (uint32_t)(ticks - 1UL);                         /* set reload register */
 8000994:	6058      	str	r0, [r3, #4]
    SCB->SHP[(((uint32_t)IRQn) & 0xFUL)-4UL] = (uint8_t)((priority << (8U - __NVIC_PRIO_BITS)) & (uint32_t)0xFFUL);
 8000996:	f884 5023 	strb.w	r5, [r4, #35]	; 0x23
                   SysTick_CTRL_TICKINT_Msk   |
                   SysTick_CTRL_ENABLE_Msk;                         /* Enable SysTick IRQ and SysTick Timer */
  return (0UL);                                                     /* Function successful */
 800099a:	4610      	mov	r0, r2
   return SysTick_Config(TicksNumb);
}
 800099c:	bc30      	pop	{r4, r5}
  SysTick->VAL   = 0UL;                                             /* Load the SysTick Counter Value */
 800099e:	609a      	str	r2, [r3, #8]
  SysTick->CTRL  = SysTick_CTRL_CLKSOURCE_Msk |
 80009a0:	6019      	str	r1, [r3, #0]
 80009a2:	4770      	bx	lr
    return (1UL);                                                   /* Reload value impossible */
 80009a4:	2001      	movs	r0, #1
 80009a6:	4770      	bx	lr
 80009a8:	e000e010 	.word	0xe000e010
 80009ac:	e000ed00 	.word	0xe000ed00

080009b0 <HAL_GPIO_Init>:
  assert_param(IS_GPIO_ALL_INSTANCE(GPIOx));
  assert_param(IS_GPIO_PIN(GPIO_Init->Pin));
  assert_param(IS_GPIO_MODE(GPIO_Init->Mode));

  /* Configure the port pins */
  while (((GPIO_Init->Pin) >> position) != 0x00u)
 80009b0:	680a      	ldr	r2, [r1, #0]
 80009b2:	2a00      	cmp	r2, #0
 80009b4:	f000 80db 	beq.w	8000b6e <HAL_GPIO_Init+0x1be>
{
 80009b8:	e92d 4ff0 	stmdb	sp!, {r4, r5, r6, r7, r8, r9, sl, fp, lr}
  uint32_t config = 0x00u;
 80009bc:	f04f 0a00 	mov.w	sl, #0
{
 80009c0:	b085      	sub	sp, #20
  uint32_t position = 0x00u;
 80009c2:	4655      	mov	r5, sl
      /*--------------------- EXTI Mode Configuration ------------------------*/
      /* Configure the External Interrupt or event for the current IO */
      if ((GPIO_Init->Mode & EXTI_MODE) == EXTI_MODE)
      {
        /* Enable AFIO Clock */
        __HAL_RCC_AFIO_CLK_ENABLE();
 80009c4:	f8df c1d0 	ldr.w	ip, [pc, #464]	; 8000b98 <HAL_GPIO_Init+0x1e8>
        temp = AFIO->EXTICR[position >> 2u];
        CLEAR_BIT(temp, (0x0Fu) << (4u * (position & 0x03u)));
        SET_BIT(temp, (GPIO_GET_INDEX(GPIOx)) << (4u * (position & 0x03u)));
 80009c8:	f8df e1d0 	ldr.w	lr, [pc, #464]	; 8000b9c <HAL_GPIO_Init+0x1ec>
        {
          SET_BIT(EXTI->FTSR, iocurrent);
        }
        else
        {
          CLEAR_BIT(EXTI->FTSR, iocurrent);
 80009cc:	4f6d      	ldr	r7, [pc, #436]	; (8000b84 <HAL_GPIO_Init+0x1d4>)
        SET_BIT(temp, (GPIO_GET_INDEX(GPIOx)) << (4u * (position & 0x03u)));
 80009ce:	f8df 81d0 	ldr.w	r8, [pc, #464]	; 8000ba0 <HAL_GPIO_Init+0x1f0>
 80009d2:	e003      	b.n	80009dc <HAL_GPIO_Init+0x2c>
        }
      }
    }

	position++;
 80009d4:	3501      	adds	r5, #1
  while (((GPIO_Init->Pin) >> position) != 0x00u)
 80009d6:	fa32 f305 	lsrs.w	r3, r2, r5
 80009da:	d078      	beq.n	8000ace <HAL_GPIO_Init+0x11e>
    ioposition = (0x01uL << position);
 80009dc:	2301      	movs	r3, #1
 80009de:	40ab      	lsls	r3, r5
    iocurrent = (uint32_t)(GPIO_Init->Pin) & ioposition;
 80009e0:	ea02 0403 	and.w	r4, r2, r3
    if (iocurrent == ioposition)
 80009e4:	42a3      	cmp	r3, r4
 80009e6:	d1f5      	bne.n	80009d4 <HAL_GPIO_Init+0x24>
      switch (GPIO_Init->Mode)
 80009e8:	684a      	ldr	r2, [r1, #4]
 80009ea:	2a12      	cmp	r2, #18
 80009ec:	f000 809e 	beq.w	8000b2c <HAL_GPIO_Init+0x17c>
 80009f0:	f200 8087 	bhi.w	8000b02 <HAL_GPIO_Init+0x152>
 80009f4:	2a02      	cmp	r2, #2
 80009f6:	f000 809d 	beq.w	8000b34 <HAL_GPIO_Init+0x184>
 80009fa:	d97c      	bls.n	8000af6 <HAL_GPIO_Init+0x146>
 80009fc:	2a03      	cmp	r2, #3
 80009fe:	d069      	beq.n	8000ad4 <HAL_GPIO_Init+0x124>
 8000a00:	2a11      	cmp	r2, #17
 8000a02:	d102      	bne.n	8000a0a <HAL_GPIO_Init+0x5a>
          config = GPIO_Init->Speed + GPIO_CR_CNF_GP_OUTPUT_OD;
 8000a04:	68cb      	ldr	r3, [r1, #12]
 8000a06:	f103 0a04 	add.w	sl, r3, #4
      configregister = (iocurrent < GPIO_PIN_8) ? &GPIOx->CRL     : &GPIOx->CRH;
 8000a0a:	2cff      	cmp	r4, #255	; 0xff
 8000a0c:	d866      	bhi.n	8000adc <HAL_GPIO_Init+0x12c>
 8000a0e:	4681      	mov	r9, r0
 8000a10:	6803      	ldr	r3, [r0, #0]
 8000a12:	00aa      	lsls	r2, r5, #2
      MODIFY_REG((*configregister), ((GPIO_CRL_MODE0 | GPIO_CRL_CNF0) << registeroffset), (config << registeroffset));
 8000a14:	260f      	movs	r6, #15
 8000a16:	fa06 fb02 	lsl.w	fp, r6, r2
 8000a1a:	ea23 030b 	bic.w	r3, r3, fp
 8000a1e:	fa0a f202 	lsl.w	r2, sl, r2
 8000a22:	4313      	orrs	r3, r2
 8000a24:	f8c9 3000 	str.w	r3, [r9]
      if ((GPIO_Init->Mode & EXTI_MODE) == EXTI_MODE)
 8000a28:	684a      	ldr	r2, [r1, #4]
 8000a2a:	00d3      	lsls	r3, r2, #3
 8000a2c:	d561      	bpl.n	8000af2 <HAL_GPIO_Init+0x142>
        __HAL_RCC_AFIO_CLK_ENABLE();
 8000a2e:	f8dc 9018 	ldr.w	r9, [ip, #24]
 8000a32:	f025 0303 	bic.w	r3, r5, #3
 8000a36:	f049 0901 	orr.w	r9, r9, #1
 8000a3a:	f8cc 9018 	str.w	r9, [ip, #24]
 8000a3e:	f8dc 9018 	ldr.w	r9, [ip, #24]
 8000a42:	f103 4380 	add.w	r3, r3, #1073741824	; 0x40000000
 8000a46:	f009 0901 	and.w	r9, r9, #1
 8000a4a:	f8cd 900c 	str.w	r9, [sp, #12]
 8000a4e:	f503 3380 	add.w	r3, r3, #65536	; 0x10000
        CLEAR_BIT(temp, (0x0Fu) << (4u * (position & 0x03u)));
 8000a52:	f005 0903 	and.w	r9, r5, #3
        __HAL_RCC_AFIO_CLK_ENABLE();
 8000a56:	f8dd b00c 	ldr.w	fp, [sp, #12]
        CLEAR_BIT(temp, (0x0Fu) << (4u * (position & 0x03u)));
 8000a5a:	ea4f 0989 	mov.w	r9, r9, lsl #2
        temp = AFIO->EXTICR[position >> 2u];
 8000a5e:	f8d3 b008 	ldr.w	fp, [r3, #8]
        CLEAR_BIT(temp, (0x0Fu) << (4u * (position & 0x03u)));
 8000a62:	fa06 f609 	lsl.w	r6, r6, r9
 8000a66:	ea2b 0606 	bic.w	r6, fp, r6
        SET_BIT(temp, (GPIO_GET_INDEX(GPIOx)) << (4u * (position & 0x03u)));
 8000a6a:	4570      	cmp	r0, lr
        CLEAR_BIT(temp, (0x0Fu) << (4u * (position & 0x03u)));
 8000a6c:	9601      	str	r6, [sp, #4]
        SET_BIT(temp, (GPIO_GET_INDEX(GPIOx)) << (4u * (position & 0x03u)));
 8000a6e:	d011      	beq.n	8000a94 <HAL_GPIO_Init+0xe4>
 8000a70:	4540      	cmp	r0, r8
 8000a72:	d063      	beq.n	8000b3c <HAL_GPIO_Init+0x18c>
 8000a74:	4e44      	ldr	r6, [pc, #272]	; (8000b88 <HAL_GPIO_Init+0x1d8>)
 8000a76:	42b0      	cmp	r0, r6
 8000a78:	d07a      	beq.n	8000b70 <HAL_GPIO_Init+0x1c0>
 8000a7a:	4e44      	ldr	r6, [pc, #272]	; (8000b8c <HAL_GPIO_Init+0x1dc>)
 8000a7c:	42b0      	cmp	r0, r6
 8000a7e:	bf0c      	ite	eq
 8000a80:	f04f 0b03 	moveq.w	fp, #3
 8000a84:	f04f 0b04 	movne.w	fp, #4
 8000a88:	9e01      	ldr	r6, [sp, #4]
 8000a8a:	fa0b f909 	lsl.w	r9, fp, r9
 8000a8e:	ea46 0609 	orr.w	r6, r6, r9
 8000a92:	9601      	str	r6, [sp, #4]
        AFIO->EXTICR[position >> 2u] = temp;
 8000a94:	609e      	str	r6, [r3, #8]
          SET_BIT(EXTI->IMR, iocurrent);
 8000a96:	683b      	ldr	r3, [r7, #0]
        if ((GPIO_Init->Mode & GPIO_MODE_IT) == GPIO_MODE_IT)
 8000a98:	03d6      	lsls	r6, r2, #15
          SET_BIT(EXTI->IMR, iocurrent);
 8000a9a:	bf4c      	ite	mi
 8000a9c:	4323      	orrmi	r3, r4
          CLEAR_BIT(EXTI->IMR, iocurrent);
 8000a9e:	43a3      	bicpl	r3, r4
 8000aa0:	603b      	str	r3, [r7, #0]
          SET_BIT(EXTI->EMR, iocurrent);
 8000aa2:	687b      	ldr	r3, [r7, #4]
        if ((GPIO_Init->Mode & GPIO_MODE_EVT) == GPIO_MODE_EVT)
 8000aa4:	0396      	lsls	r6, r2, #14
          SET_BIT(EXTI->EMR, iocurrent);
 8000aa6:	bf4c      	ite	mi
 8000aa8:	4323      	orrmi	r3, r4
          CLEAR_BIT(EXTI->EMR, iocurrent);
 8000aaa:	43a3      	bicpl	r3, r4
 8000aac:	607b      	str	r3, [r7, #4]
          SET_BIT(EXTI->RTSR, iocurrent);
 8000aae:	68bb      	ldr	r3, [r7, #8]
        if ((GPIO_Init->Mode & RISING_EDGE) == RISING_EDGE)
 8000ab0:	02d6      	lsls	r6, r2, #11
          SET_BIT(EXTI->RTSR, iocurrent);
 8000ab2:	bf4c      	ite	mi
 8000ab4:	4323      	orrmi	r3, r4
          CLEAR_BIT(EXTI->RTSR, iocurrent);
 8000ab6:	43a3      	bicpl	r3, r4
 8000ab8:	60bb      	str	r3, [r7, #8]
        if ((GPIO_Init->Mode & FALLING_EDGE) == FALLING_EDGE)
 8000aba:	0292      	lsls	r2, r2, #10
          SET_BIT(EXTI->FTSR, iocurrent);
 8000abc:	68fb      	ldr	r3, [r7, #12]
        if ((GPIO_Init->Mode & FALLING_EDGE) == FALLING_EDGE)
 8000abe:	d515      	bpl.n	8000aec <HAL_GPIO_Init+0x13c>
          SET_BIT(EXTI->FTSR, iocurrent);
 8000ac0:	431c      	orrs	r4, r3
 8000ac2:	60fc      	str	r4, [r7, #12]
 8000ac4:	680a      	ldr	r2, [r1, #0]
	position++;
 8000ac6:	3501      	adds	r5, #1
  while (((GPIO_Init->Pin) >> position) != 0x00u)
 8000ac8:	fa32 f305 	lsrs.w	r3, r2, r5
 8000acc:	d186      	bne.n	80009dc <HAL_GPIO_Init+0x2c>
  }
}
 8000ace:	b005      	add	sp, #20
 8000ad0:	e8bd 8ff0 	ldmia.w	sp!, {r4, r5, r6, r7, r8, r9, sl, fp, pc}
      configregister = (iocurrent < GPIO_PIN_8) ? &GPIOx->CRL     : &GPIOx->CRH;
 8000ad4:	2cff      	cmp	r4, #255	; 0xff
          config = GPIO_CR_MODE_INPUT + GPIO_CR_CNF_ANALOG;
 8000ad6:	f04f 0a00 	mov.w	sl, #0
      configregister = (iocurrent < GPIO_PIN_8) ? &GPIOx->CRL     : &GPIOx->CRH;
 8000ada:	d998      	bls.n	8000a0e <HAL_GPIO_Init+0x5e>
 8000adc:	f105 4280 	add.w	r2, r5, #1073741824	; 0x40000000
 8000ae0:	3a08      	subs	r2, #8
 8000ae2:	6843      	ldr	r3, [r0, #4]
 8000ae4:	0092      	lsls	r2, r2, #2
 8000ae6:	f100 0904 	add.w	r9, r0, #4
 8000aea:	e793      	b.n	8000a14 <HAL_GPIO_Init+0x64>
          CLEAR_BIT(EXTI->FTSR, iocurrent);
 8000aec:	ea23 0404 	bic.w	r4, r3, r4
 8000af0:	60fc      	str	r4, [r7, #12]
 8000af2:	680a      	ldr	r2, [r1, #0]
 8000af4:	e76e      	b.n	80009d4 <HAL_GPIO_Init+0x24>
      switch (GPIO_Init->Mode)
 8000af6:	b1a2      	cbz	r2, 8000b22 <HAL_GPIO_Init+0x172>
 8000af8:	2a01      	cmp	r2, #1
 8000afa:	d186      	bne.n	8000a0a <HAL_GPIO_Init+0x5a>
          config = GPIO_Init->Speed + GPIO_CR_CNF_GP_OUTPUT_PP;
 8000afc:	f8d1 a00c 	ldr.w	sl, [r1, #12]
          break;
 8000b00:	e783      	b.n	8000a0a <HAL_GPIO_Init+0x5a>
      switch (GPIO_Init->Mode)
 8000b02:	4e23      	ldr	r6, [pc, #140]	; (8000b90 <HAL_GPIO_Init+0x1e0>)
 8000b04:	42b2      	cmp	r2, r6
 8000b06:	d00c      	beq.n	8000b22 <HAL_GPIO_Init+0x172>
 8000b08:	d920      	bls.n	8000b4c <HAL_GPIO_Init+0x19c>
 8000b0a:	4e22      	ldr	r6, [pc, #136]	; (8000b94 <HAL_GPIO_Init+0x1e4>)
 8000b0c:	42b2      	cmp	r2, r6
 8000b0e:	d008      	beq.n	8000b22 <HAL_GPIO_Init+0x172>
 8000b10:	f506 3680 	add.w	r6, r6, #65536	; 0x10000
 8000b14:	42b2      	cmp	r2, r6
 8000b16:	d004      	beq.n	8000b22 <HAL_GPIO_Init+0x172>
 8000b18:	f5a6 1680 	sub.w	r6, r6, #1048576	; 0x100000
 8000b1c:	42b2      	cmp	r2, r6
 8000b1e:	f47f af74 	bne.w	8000a0a <HAL_GPIO_Init+0x5a>
          if (GPIO_Init->Pull == GPIO_NOPULL)
 8000b22:	688a      	ldr	r2, [r1, #8]
 8000b24:	b9e2      	cbnz	r2, 8000b60 <HAL_GPIO_Init+0x1b0>
            config = GPIO_CR_MODE_INPUT + GPIO_CR_CNF_INPUT_FLOATING;
 8000b26:	f04f 0a04 	mov.w	sl, #4
 8000b2a:	e76e      	b.n	8000a0a <HAL_GPIO_Init+0x5a>
          config = GPIO_Init->Speed + GPIO_CR_CNF_AF_OUTPUT_OD;
 8000b2c:	68cb      	ldr	r3, [r1, #12]
 8000b2e:	f103 0a0c 	add.w	sl, r3, #12
          break;
 8000b32:	e76a      	b.n	8000a0a <HAL_GPIO_Init+0x5a>
          config = GPIO_Init->Speed + GPIO_CR_CNF_AF_OUTPUT_PP;
 8000b34:	68cb      	ldr	r3, [r1, #12]
 8000b36:	f103 0a08 	add.w	sl, r3, #8
          break;
 8000b3a:	e766      	b.n	8000a0a <HAL_GPIO_Init+0x5a>
 8000b3c:	f04f 0b01 	mov.w	fp, #1
 8000b40:	fa0b f909 	lsl.w	r9, fp, r9
 8000b44:	ea46 0609 	orr.w	r6, r6, r9
 8000b48:	9601      	str	r6, [sp, #4]
 8000b4a:	e7a3      	b.n	8000a94 <HAL_GPIO_Init+0xe4>
      switch (GPIO_Init->Mode)
 8000b4c:	f5a6 1680 	sub.w	r6, r6, #1048576	; 0x100000
 8000b50:	42b2      	cmp	r2, r6
 8000b52:	d0e6      	beq.n	8000b22 <HAL_GPIO_Init+0x172>
 8000b54:	f506 3680 	add.w	r6, r6, #65536	; 0x10000
 8000b58:	42b2      	cmp	r2, r6
 8000b5a:	f47f af56 	bne.w	8000a0a <HAL_GPIO_Init+0x5a>
 8000b5e:	e7e0      	b.n	8000b22 <HAL_GPIO_Init+0x172>
          else if (GPIO_Init->Pull == GPIO_PULLUP)
 8000b60:	2a01      	cmp	r2, #1
            GPIOx->BSRR = ioposition;
 8000b62:	bf0c      	ite	eq
 8000b64:	6103      	streq	r3, [r0, #16]
            GPIOx->BRR = ioposition;
 8000b66:	6143      	strne	r3, [r0, #20]
            config = GPIO_CR_MODE_INPUT + GPIO_CR_CNF_INPUT_PU_PD;
 8000b68:	f04f 0a08 	mov.w	sl, #8
 8000b6c:	e74d      	b.n	8000a0a <HAL_GPIO_Init+0x5a>
 8000b6e:	4770      	bx	lr
 8000b70:	f04f 0b02 	mov.w	fp, #2
 8000b74:	9e01      	ldr	r6, [sp, #4]
 8000b76:	fa0b f909 	lsl.w	r9, fp, r9
 8000b7a:	ea46 0609 	orr.w	r6, r6, r9
 8000b7e:	9601      	str	r6, [sp, #4]
 8000b80:	e788      	b.n	8000a94 <HAL_GPIO_Init+0xe4>
 8000b82:	bf00      	nop
 8000b84:	40010400 	.word	0x40010400
 8000b88:	40011000 	.word	0x40011000
 8000b8c:	40011400 	.word	0x40011400
 8000b90:	10210000 	.word	0x10210000
 8000b94:	10310000 	.word	0x10310000
 8000b98:	40021000 	.word	0x40021000
 8000b9c:	40010800 	.word	0x40010800
 8000ba0:	40010c00 	.word	0x40010c00

08000ba4 <HAL_GPIO_WritePin>:
{
  /* Check the parameters */
  assert_param(IS_GPIO_PIN(GPIO_Pin));
  assert_param(IS_GPIO_PIN_ACTION(PinState));

  if (PinState != GPIO_PIN_RESET)
 8000ba4:	b902      	cbnz	r2, 8000ba8 <HAL_GPIO_WritePin+0x4>
  {
    GPIOx->BSRR = GPIO_Pin;
  }
  else
  {
    GPIOx->BSRR = (uint32_t)GPIO_Pin << 16u;
 8000ba6:	0409      	lsls	r1, r1, #16
 8000ba8:	6101      	str	r1, [r0, #16]
  }
}
 8000baa:	4770      	bx	lr

08000bac <HAL_RCC_OscConfig>:
{
  uint32_t tickstart;
  uint32_t pll_config;

  /* Check Null pointer */
  if (RCC_OscInitStruct == NULL)
 8000bac:	2800      	cmp	r0, #0
 8000bae:	f000 8155 	beq.w	8000e5c <HAL_RCC_OscConfig+0x2b0>
{
 8000bb2:	e92d 41f0 	stmdb	sp!, {r4, r5, r6, r7, r8, lr}

  /* Check the parameters */
  assert_param(IS_RCC_OSCILLATORTYPE(RCC_OscInitStruct->OscillatorType));

  /*------------------------------- HSE Configuration ------------------------*/
  if (((RCC_OscInitStruct->OscillatorType) & RCC_OSCILLATORTYPE_HSE) == RCC_OSCILLATORTYPE_HSE)
 8000bb6:	6803      	ldr	r3, [r0, #0]
{
 8000bb8:	b082      	sub	sp, #8
  if (((RCC_OscInitStruct->OscillatorType) & RCC_OSCILLATORTYPE_HSE) == RCC_OSCILLATORTYPE_HSE)
 8000bba:	07dd      	lsls	r5, r3, #31
 8000bbc:	4604      	mov	r4, r0
 8000bbe:	d535      	bpl.n	8000c2c <HAL_RCC_OscConfig+0x80>
  {
    /* Check the parameters */
    assert_param(IS_RCC_HSE(RCC_OscInitStruct->HSEState));

    /* When the HSE is used as system clock or clock source for PLL in these cases it is not allowed to be disabled */
    if ((__HAL_RCC_GET_SYSCLK_SOURCE() == RCC_SYSCLKSOURCE_STATUS_HSE)
 8000bc0:	49a8      	ldr	r1, [pc, #672]	; (8000e64 <HAL_RCC_OscConfig+0x2b8>)
 8000bc2:	684a      	ldr	r2, [r1, #4]
 8000bc4:	f002 020c 	and.w	r2, r2, #12
 8000bc8:	2a04      	cmp	r2, #4
 8000bca:	f000 8105 	beq.w	8000dd8 <HAL_RCC_OscConfig+0x22c>
        || ((__HAL_RCC_GET_SYSCLK_SOURCE() == RCC_SYSCLKSOURCE_STATUS_PLLCLK) && (__HAL_RCC_GET_PLL_OSCSOURCE() == RCC_PLLSOURCE_HSE)))
 8000bce:	684a      	ldr	r2, [r1, #4]
 8000bd0:	f002 020c 	and.w	r2, r2, #12
 8000bd4:	2a08      	cmp	r2, #8
 8000bd6:	f000 80fb 	beq.w	8000dd0 <HAL_RCC_OscConfig+0x224>
      }
    }
    else
    {
      /* Set the new HSE configuration ---------------------------------------*/
      __HAL_RCC_HSE_CONFIG(RCC_OscInitStruct->HSEState);
 8000bda:	6863      	ldr	r3, [r4, #4]
 8000bdc:	f5b3 3f80 	cmp.w	r3, #65536	; 0x10000
 8000be0:	d010      	beq.n	8000c04 <HAL_RCC_OscConfig+0x58>
 8000be2:	2b00      	cmp	r3, #0
 8000be4:	f000 8120 	beq.w	8000e28 <HAL_RCC_OscConfig+0x27c>
 8000be8:	f5b3 2fa0 	cmp.w	r3, #327680	; 0x50000
 8000bec:	f000 8178 	beq.w	8000ee0 <HAL_RCC_OscConfig+0x334>
 8000bf0:	4b9c      	ldr	r3, [pc, #624]	; (8000e64 <HAL_RCC_OscConfig+0x2b8>)
 8000bf2:	681a      	ldr	r2, [r3, #0]
 8000bf4:	f422 3280 	bic.w	r2, r2, #65536	; 0x10000
 8000bf8:	601a      	str	r2, [r3, #0]
 8000bfa:	681a      	ldr	r2, [r3, #0]
 8000bfc:	f422 2280 	bic.w	r2, r2, #262144	; 0x40000
 8000c00:	601a      	str	r2, [r3, #0]
 8000c02:	e004      	b.n	8000c0e <HAL_RCC_OscConfig+0x62>
 8000c04:	4a97      	ldr	r2, [pc, #604]	; (8000e64 <HAL_RCC_OscConfig+0x2b8>)
 8000c06:	6813      	ldr	r3, [r2, #0]
 8000c08:	f443 3380 	orr.w	r3, r3, #65536	; 0x10000
 8000c0c:	6013      	str	r3, [r2, #0]

      /* Check the HSE State */
      if (RCC_OscInitStruct->HSEState != RCC_HSE_OFF)
      {
        /* Get Start Tick */
        tickstart = HAL_GetTick();
 8000c0e:	f7ff fe57 	bl	80008c0 <HAL_GetTick>

        /* Wait till HSE is ready */
        while (__HAL_RCC_GET_FLAG(RCC_FLAG_HSERDY) == RESET)
 8000c12:	4d94      	ldr	r5, [pc, #592]	; (8000e64 <HAL_RCC_OscConfig+0x2b8>)
        tickstart = HAL_GetTick();
 8000c14:	4606      	mov	r6, r0
        while (__HAL_RCC_GET_FLAG(RCC_FLAG_HSERDY) == RESET)
 8000c16:	e005      	b.n	8000c24 <HAL_RCC_OscConfig+0x78>
        {
          if ((HAL_GetTick() - tickstart) > HSE_TIMEOUT_VALUE)
 8000c18:	f7ff fe52 	bl	80008c0 <HAL_GetTick>
 8000c1c:	1b80      	subs	r0, r0, r6
 8000c1e:	2864      	cmp	r0, #100	; 0x64
 8000c20:	f200 80f5 	bhi.w	8000e0e <HAL_RCC_OscConfig+0x262>
        while (__HAL_RCC_GET_FLAG(RCC_FLAG_HSERDY) == RESET)
 8000c24:	682b      	ldr	r3, [r5, #0]
 8000c26:	039a      	lsls	r2, r3, #14
 8000c28:	d5f6      	bpl.n	8000c18 <HAL_RCC_OscConfig+0x6c>
 8000c2a:	6823      	ldr	r3, [r4, #0]
        }
      }
    }
  }
  /*----------------------------- HSI Configuration --------------------------*/
  if (((RCC_OscInitStruct->OscillatorType) & RCC_OSCILLATORTYPE_HSI) == RCC_OSCILLATORTYPE_HSI)
 8000c2c:	079f      	lsls	r7, r3, #30
 8000c2e:	d44d      	bmi.n	8000ccc <HAL_RCC_OscConfig+0x120>
        }
      }
    }
  }
  /*------------------------------ LSI Configuration -------------------------*/
  if (((RCC_OscInitStruct->OscillatorType) & RCC_OSCILLATORTYPE_LSI) == RCC_OSCILLATORTYPE_LSI)
 8000c30:	071a      	lsls	r2, r3, #28
 8000c32:	d522      	bpl.n	8000c7a <HAL_RCC_OscConfig+0xce>
  {
    /* Check the parameters */
    assert_param(IS_RCC_LSI(RCC_OscInitStruct->LSIState));

    /* Check the LSI State */
    if (RCC_OscInitStruct->LSIState != RCC_LSI_OFF)
 8000c34:	69a3      	ldr	r3, [r4, #24]
 8000c36:	2b00      	cmp	r3, #0
 8000c38:	f000 80ba 	beq.w	8000db0 <HAL_RCC_OscConfig+0x204>
    {
      /* Enable the Internal Low Speed oscillator (LSI). */
      __HAL_RCC_LSI_ENABLE();
 8000c3c:	2201      	movs	r2, #1
 8000c3e:	4b8a      	ldr	r3, [pc, #552]	; (8000e68 <HAL_RCC_OscConfig+0x2bc>)

      /* Get Start Tick */
      tickstart = HAL_GetTick();

      /* Wait till LSI is ready */
      while (__HAL_RCC_GET_FLAG(RCC_FLAG_LSIRDY) == RESET)
 8000c40:	4d88      	ldr	r5, [pc, #544]	; (8000e64 <HAL_RCC_OscConfig+0x2b8>)
      __HAL_RCC_LSI_ENABLE();
 8000c42:	601a      	str	r2, [r3, #0]
      tickstart = HAL_GetTick();
 8000c44:	f7ff fe3c 	bl	80008c0 <HAL_GetTick>
 8000c48:	4606      	mov	r6, r0
      while (__HAL_RCC_GET_FLAG(RCC_FLAG_LSIRDY) == RESET)
 8000c4a:	e005      	b.n	8000c58 <HAL_RCC_OscConfig+0xac>
      {
        if ((HAL_GetTick() - tickstart) > LSI_TIMEOUT_VALUE)
 8000c4c:	f7ff fe38 	bl	80008c0 <HAL_GetTick>
 8000c50:	1b80      	subs	r0, r0, r6
 8000c52:	2802      	cmp	r0, #2
 8000c54:	f200 80db 	bhi.w	8000e0e <HAL_RCC_OscConfig+0x262>
      while (__HAL_RCC_GET_FLAG(RCC_FLAG_LSIRDY) == RESET)
 8000c58:	6a6b      	ldr	r3, [r5, #36]	; 0x24
 8000c5a:	079b      	lsls	r3, r3, #30
 8000c5c:	d5f6      	bpl.n	8000c4c <HAL_RCC_OscConfig+0xa0>
  * @param  mdelay: specifies the delay time length, in milliseconds.
  * @retval None
  */
static void RCC_Delay(uint32_t mdelay)
{
  __IO uint32_t Delay = mdelay * (SystemCoreClock / 8U / 1000U);
 8000c5e:	4b83      	ldr	r3, [pc, #524]	; (8000e6c <HAL_RCC_OscConfig+0x2c0>)
 8000c60:	4a83      	ldr	r2, [pc, #524]	; (8000e70 <HAL_RCC_OscConfig+0x2c4>)
 8000c62:	681b      	ldr	r3, [r3, #0]
 8000c64:	fba2 2303 	umull	r2, r3, r2, r3
 8000c68:	0a5b      	lsrs	r3, r3, #9
 8000c6a:	9301      	str	r3, [sp, #4]
  do
  {
    __NOP();
 8000c6c:	bf00      	nop
  }
  while (Delay --);
 8000c6e:	9b01      	ldr	r3, [sp, #4]
 8000c70:	1e5a      	subs	r2, r3, #1
 8000c72:	9201      	str	r2, [sp, #4]
 8000c74:	2b00      	cmp	r3, #0
 8000c76:	d1f9      	bne.n	8000c6c <HAL_RCC_OscConfig+0xc0>
 8000c78:	6823      	ldr	r3, [r4, #0]
  if (((RCC_OscInitStruct->OscillatorType) & RCC_OSCILLATORTYPE_LSE) == RCC_OSCILLATORTYPE_LSE)
 8000c7a:	075d      	lsls	r5, r3, #29
 8000c7c:	d569      	bpl.n	8000d52 <HAL_RCC_OscConfig+0x1a6>
    if (__HAL_RCC_PWR_IS_CLK_DISABLED())
 8000c7e:	4b79      	ldr	r3, [pc, #484]	; (8000e64 <HAL_RCC_OscConfig+0x2b8>)
 8000c80:	69da      	ldr	r2, [r3, #28]
 8000c82:	00d0      	lsls	r0, r2, #3
 8000c84:	f100 80ec 	bmi.w	8000e60 <HAL_RCC_OscConfig+0x2b4>
      pwrclkchanged = SET;
 8000c88:	2501      	movs	r5, #1
      __HAL_RCC_PWR_CLK_ENABLE();
 8000c8a:	69da      	ldr	r2, [r3, #28]
 8000c8c:	f042 5280 	orr.w	r2, r2, #268435456	; 0x10000000
 8000c90:	61da      	str	r2, [r3, #28]
 8000c92:	69db      	ldr	r3, [r3, #28]
 8000c94:	f003 5380 	and.w	r3, r3, #268435456	; 0x10000000
 8000c98:	9300      	str	r3, [sp, #0]
 8000c9a:	9b00      	ldr	r3, [sp, #0]
    if (HAL_IS_BIT_CLR(PWR->CR, PWR_CR_DBP))
 8000c9c:	4b75      	ldr	r3, [pc, #468]	; (8000e74 <HAL_RCC_OscConfig+0x2c8>)
 8000c9e:	681a      	ldr	r2, [r3, #0]
 8000ca0:	05d1      	lsls	r1, r2, #23
 8000ca2:	f140 80a3 	bpl.w	8000dec <HAL_RCC_OscConfig+0x240>
    __HAL_RCC_LSE_CONFIG(RCC_OscInitStruct->LSEState);
 8000ca6:	68e3      	ldr	r3, [r4, #12]
 8000ca8:	2b01      	cmp	r3, #1
 8000caa:	d037      	beq.n	8000d1c <HAL_RCC_OscConfig+0x170>
 8000cac:	2b00      	cmp	r3, #0
 8000cae:	f000 80e7 	beq.w	8000e80 <HAL_RCC_OscConfig+0x2d4>
 8000cb2:	2b05      	cmp	r3, #5
 8000cb4:	4b6b      	ldr	r3, [pc, #428]	; (8000e64 <HAL_RCC_OscConfig+0x2b8>)
 8000cb6:	6a1a      	ldr	r2, [r3, #32]
 8000cb8:	f000 811f 	beq.w	8000efa <HAL_RCC_OscConfig+0x34e>
 8000cbc:	f022 0201 	bic.w	r2, r2, #1
 8000cc0:	621a      	str	r2, [r3, #32]
 8000cc2:	6a1a      	ldr	r2, [r3, #32]
 8000cc4:	f022 0204 	bic.w	r2, r2, #4
 8000cc8:	621a      	str	r2, [r3, #32]
 8000cca:	e02c      	b.n	8000d26 <HAL_RCC_OscConfig+0x17a>
    if ((__HAL_RCC_GET_SYSCLK_SOURCE() == RCC_SYSCLKSOURCE_STATUS_HSI)
 8000ccc:	4a65      	ldr	r2, [pc, #404]	; (8000e64 <HAL_RCC_OscConfig+0x2b8>)
 8000cce:	6851      	ldr	r1, [r2, #4]
 8000cd0:	f011 0f0c 	tst.w	r1, #12
 8000cd4:	d061      	beq.n	8000d9a <HAL_RCC_OscConfig+0x1ee>
        || ((__HAL_RCC_GET_SYSCLK_SOURCE() == RCC_SYSCLKSOURCE_STATUS_PLLCLK) && (__HAL_RCC_GET_PLL_OSCSOURCE() == RCC_PLLSOURCE_HSI_DIV2)))
 8000cd6:	6851      	ldr	r1, [r2, #4]
 8000cd8:	f001 010c 	and.w	r1, r1, #12
 8000cdc:	2908      	cmp	r1, #8
 8000cde:	d059      	beq.n	8000d94 <HAL_RCC_OscConfig+0x1e8>
      if (RCC_OscInitStruct->HSIState != RCC_HSI_OFF)
 8000ce0:	6923      	ldr	r3, [r4, #16]
 8000ce2:	2b00      	cmp	r3, #0
 8000ce4:	f000 80eb 	beq.w	8000ebe <HAL_RCC_OscConfig+0x312>
        __HAL_RCC_HSI_ENABLE();
 8000ce8:	2201      	movs	r2, #1
 8000cea:	4b63      	ldr	r3, [pc, #396]	; (8000e78 <HAL_RCC_OscConfig+0x2cc>)
        while (__HAL_RCC_GET_FLAG(RCC_FLAG_HSIRDY) == RESET)
 8000cec:	4d5d      	ldr	r5, [pc, #372]	; (8000e64 <HAL_RCC_OscConfig+0x2b8>)
        __HAL_RCC_HSI_ENABLE();
 8000cee:	601a      	str	r2, [r3, #0]
        tickstart = HAL_GetTick();
 8000cf0:	f7ff fde6 	bl	80008c0 <HAL_GetTick>
 8000cf4:	4606      	mov	r6, r0
        while (__HAL_RCC_GET_FLAG(RCC_FLAG_HSIRDY) == RESET)
 8000cf6:	e005      	b.n	8000d04 <HAL_RCC_OscConfig+0x158>
          if ((HAL_GetTick() - tickstart) > HSI_TIMEOUT_VALUE)
 8000cf8:	f7ff fde2 	bl	80008c0 <HAL_GetTick>
 8000cfc:	1b80      	subs	r0, r0, r6
 8000cfe:	2802      	cmp	r0, #2
 8000d00:	f200 8085 	bhi.w	8000e0e <HAL_RCC_OscConfig+0x262>
        while (__HAL_RCC_GET_FLAG(RCC_FLAG_HSIRDY) == RESET)
 8000d04:	682b      	ldr	r3, [r5, #0]
 8000d06:	0798      	lsls	r0, r3, #30
 8000d08:	d5f6      	bpl.n	8000cf8 <HAL_RCC_OscConfig+0x14c>
        __HAL_RCC_HSI_CALIBRATIONVALUE_ADJUST(RCC_OscInitStruct->HSICalibrationValue);
 8000d0a:	682b      	ldr	r3, [r5, #0]
 8000d0c:	6962      	ldr	r2, [r4, #20]
 8000d0e:	f023 03f8 	bic.w	r3, r3, #248	; 0xf8
 8000d12:	ea43 03c2 	orr.w	r3, r3, r2, lsl #3
 8000d16:	602b      	str	r3, [r5, #0]
 8000d18:	6823      	ldr	r3, [r4, #0]
 8000d1a:	e789      	b.n	8000c30 <HAL_RCC_OscConfig+0x84>
    __HAL_RCC_LSE_CONFIG(RCC_OscInitStruct->LSEState);
 8000d1c:	4a51      	ldr	r2, [pc, #324]	; (8000e64 <HAL_RCC_OscConfig+0x2b8>)
 8000d1e:	6a13      	ldr	r3, [r2, #32]
 8000d20:	f043 0301 	orr.w	r3, r3, #1
 8000d24:	6213      	str	r3, [r2, #32]
      tickstart = HAL_GetTick();
 8000d26:	f7ff fdcb 	bl	80008c0 <HAL_GetTick>
      while (__HAL_RCC_GET_FLAG(RCC_FLAG_LSERDY) == RESET)
 8000d2a:	4e4e      	ldr	r6, [pc, #312]	; (8000e64 <HAL_RCC_OscConfig+0x2b8>)
      tickstart = HAL_GetTick();
 8000d2c:	4680      	mov	r8, r0
        if ((HAL_GetTick() - tickstart) > RCC_LSE_TIMEOUT_VALUE)
 8000d2e:	f241 3788 	movw	r7, #5000	; 0x1388
      while (__HAL_RCC_GET_FLAG(RCC_FLAG_LSERDY) == RESET)
 8000d32:	e005      	b.n	8000d40 <HAL_RCC_OscConfig+0x194>
        if ((HAL_GetTick() - tickstart) > RCC_LSE_TIMEOUT_VALUE)
 8000d34:	f7ff fdc4 	bl	80008c0 <HAL_GetTick>
 8000d38:	eba0 0008 	sub.w	r0, r0, r8
 8000d3c:	42b8      	cmp	r0, r7
 8000d3e:	d866      	bhi.n	8000e0e <HAL_RCC_OscConfig+0x262>
      while (__HAL_RCC_GET_FLAG(RCC_FLAG_LSERDY) == RESET)
 8000d40:	6a33      	ldr	r3, [r6, #32]
 8000d42:	079b      	lsls	r3, r3, #30
 8000d44:	d5f6      	bpl.n	8000d34 <HAL_RCC_OscConfig+0x188>
    if (pwrclkchanged == SET)
 8000d46:	b125      	cbz	r5, 8000d52 <HAL_RCC_OscConfig+0x1a6>
      __HAL_RCC_PWR_CLK_DISABLE();
 8000d48:	4a46      	ldr	r2, [pc, #280]	; (8000e64 <HAL_RCC_OscConfig+0x2b8>)
 8000d4a:	69d3      	ldr	r3, [r2, #28]
 8000d4c:	f023 5380 	bic.w	r3, r3, #268435456	; 0x10000000
 8000d50:	61d3      	str	r3, [r2, #28]
  if ((RCC_OscInitStruct->PLL.PLLState) != RCC_PLL_NONE)
 8000d52:	69e0      	ldr	r0, [r4, #28]
 8000d54:	b1d0      	cbz	r0, 8000d8c <HAL_RCC_OscConfig+0x1e0>
    if (__HAL_RCC_GET_SYSCLK_SOURCE() != RCC_SYSCLKSOURCE_STATUS_PLLCLK)
 8000d56:	4d43      	ldr	r5, [pc, #268]	; (8000e64 <HAL_RCC_OscConfig+0x2b8>)
 8000d58:	686a      	ldr	r2, [r5, #4]
 8000d5a:	f002 020c 	and.w	r2, r2, #12
 8000d5e:	2a08      	cmp	r2, #8
 8000d60:	f000 80d3 	beq.w	8000f0a <HAL_RCC_OscConfig+0x35e>
      if ((RCC_OscInitStruct->PLL.PLLState) == RCC_PLL_ON)
 8000d64:	2802      	cmp	r0, #2
        __HAL_RCC_PLL_DISABLE();
 8000d66:	f04f 0100 	mov.w	r1, #0
 8000d6a:	4a44      	ldr	r2, [pc, #272]	; (8000e7c <HAL_RCC_OscConfig+0x2d0>)
      if ((RCC_OscInitStruct->PLL.PLLState) == RCC_PLL_ON)
 8000d6c:	f000 80de 	beq.w	8000f2c <HAL_RCC_OscConfig+0x380>
        __HAL_RCC_PLL_DISABLE();
 8000d70:	6011      	str	r1, [r2, #0]
        tickstart = HAL_GetTick();
 8000d72:	f7ff fda5 	bl	80008c0 <HAL_GetTick>
        while (__HAL_RCC_GET_FLAG(RCC_FLAG_PLLRDY)  != RESET)
 8000d76:	462c      	mov	r4, r5
        tickstart = HAL_GetTick();
 8000d78:	4605      	mov	r5, r0
        while (__HAL_RCC_GET_FLAG(RCC_FLAG_PLLRDY)  != RESET)
 8000d7a:	e004      	b.n	8000d86 <HAL_RCC_OscConfig+0x1da>
          if ((HAL_GetTick() - tickstart) > PLL_TIMEOUT_VALUE)
 8000d7c:	f7ff fda0 	bl	80008c0 <HAL_GetTick>
 8000d80:	1b40      	subs	r0, r0, r5
 8000d82:	2802      	cmp	r0, #2
 8000d84:	d843      	bhi.n	8000e0e <HAL_RCC_OscConfig+0x262>
        while (__HAL_RCC_GET_FLAG(RCC_FLAG_PLLRDY)  != RESET)
 8000d86:	6823      	ldr	r3, [r4, #0]
 8000d88:	019b      	lsls	r3, r3, #6
 8000d8a:	d4f7      	bmi.n	8000d7c <HAL_RCC_OscConfig+0x1d0>
  return HAL_OK;
 8000d8c:	2000      	movs	r0, #0
}
 8000d8e:	b002      	add	sp, #8
 8000d90:	e8bd 81f0 	ldmia.w	sp!, {r4, r5, r6, r7, r8, pc}
        || ((__HAL_RCC_GET_SYSCLK_SOURCE() == RCC_SYSCLKSOURCE_STATUS_PLLCLK) && (__HAL_RCC_GET_PLL_OSCSOURCE() == RCC_PLLSOURCE_HSI_DIV2)))
 8000d94:	6852      	ldr	r2, [r2, #4]
 8000d96:	03d6      	lsls	r6, r2, #15
 8000d98:	d4a2      	bmi.n	8000ce0 <HAL_RCC_OscConfig+0x134>
      if ((__HAL_RCC_GET_FLAG(RCC_FLAG_HSIRDY) != RESET) && (RCC_OscInitStruct->HSIState != RCC_HSI_ON))
 8000d9a:	4a32      	ldr	r2, [pc, #200]	; (8000e64 <HAL_RCC_OscConfig+0x2b8>)
 8000d9c:	6812      	ldr	r2, [r2, #0]
 8000d9e:	0795      	lsls	r5, r2, #30
 8000da0:	d539      	bpl.n	8000e16 <HAL_RCC_OscConfig+0x26a>
 8000da2:	6922      	ldr	r2, [r4, #16]
 8000da4:	2a01      	cmp	r2, #1
 8000da6:	d036      	beq.n	8000e16 <HAL_RCC_OscConfig+0x26a>
        return HAL_ERROR;
 8000da8:	2001      	movs	r0, #1
}
 8000daa:	b002      	add	sp, #8
 8000dac:	e8bd 81f0 	ldmia.w	sp!, {r4, r5, r6, r7, r8, pc}
      __HAL_RCC_LSI_DISABLE();
 8000db0:	4a2d      	ldr	r2, [pc, #180]	; (8000e68 <HAL_RCC_OscConfig+0x2bc>)
      while (__HAL_RCC_GET_FLAG(RCC_FLAG_LSIRDY) != RESET)
 8000db2:	4d2c      	ldr	r5, [pc, #176]	; (8000e64 <HAL_RCC_OscConfig+0x2b8>)
      __HAL_RCC_LSI_DISABLE();
 8000db4:	6013      	str	r3, [r2, #0]
      tickstart = HAL_GetTick();
 8000db6:	f7ff fd83 	bl	80008c0 <HAL_GetTick>
 8000dba:	4606      	mov	r6, r0
      while (__HAL_RCC_GET_FLAG(RCC_FLAG_LSIRDY) != RESET)
 8000dbc:	e004      	b.n	8000dc8 <HAL_RCC_OscConfig+0x21c>
        if ((HAL_GetTick() - tickstart) > LSI_TIMEOUT_VALUE)
 8000dbe:	f7ff fd7f 	bl	80008c0 <HAL_GetTick>
 8000dc2:	1b80      	subs	r0, r0, r6
 8000dc4:	2802      	cmp	r0, #2
 8000dc6:	d822      	bhi.n	8000e0e <HAL_RCC_OscConfig+0x262>
      while (__HAL_RCC_GET_FLAG(RCC_FLAG_LSIRDY) != RESET)
 8000dc8:	6a6b      	ldr	r3, [r5, #36]	; 0x24
 8000dca:	079f      	lsls	r7, r3, #30
 8000dcc:	d4f7      	bmi.n	8000dbe <HAL_RCC_OscConfig+0x212>
 8000dce:	e753      	b.n	8000c78 <HAL_RCC_OscConfig+0xcc>
        || ((__HAL_RCC_GET_SYSCLK_SOURCE() == RCC_SYSCLKSOURCE_STATUS_PLLCLK) && (__HAL_RCC_GET_PLL_OSCSOURCE() == RCC_PLLSOURCE_HSE)))
 8000dd0:	684a      	ldr	r2, [r1, #4]
 8000dd2:	03d0      	lsls	r0, r2, #15
 8000dd4:	f57f af01 	bpl.w	8000bda <HAL_RCC_OscConfig+0x2e>
      if ((__HAL_RCC_GET_FLAG(RCC_FLAG_HSERDY) != RESET) && (RCC_OscInitStruct->HSEState == RCC_HSE_OFF))
 8000dd8:	4a22      	ldr	r2, [pc, #136]	; (8000e64 <HAL_RCC_OscConfig+0x2b8>)
 8000dda:	6812      	ldr	r2, [r2, #0]
 8000ddc:	0391      	lsls	r1, r2, #14
 8000dde:	f57f af25 	bpl.w	8000c2c <HAL_RCC_OscConfig+0x80>
 8000de2:	6862      	ldr	r2, [r4, #4]
 8000de4:	2a00      	cmp	r2, #0
 8000de6:	f47f af21 	bne.w	8000c2c <HAL_RCC_OscConfig+0x80>
 8000dea:	e7dd      	b.n	8000da8 <HAL_RCC_OscConfig+0x1fc>
      SET_BIT(PWR->CR, PWR_CR_DBP);
 8000dec:	681a      	ldr	r2, [r3, #0]
      while (HAL_IS_BIT_CLR(PWR->CR, PWR_CR_DBP))
 8000dee:	461e      	mov	r6, r3
      SET_BIT(PWR->CR, PWR_CR_DBP);
 8000df0:	f442 7280 	orr.w	r2, r2, #256	; 0x100
 8000df4:	601a      	str	r2, [r3, #0]
      tickstart = HAL_GetTick();
 8000df6:	f7ff fd63 	bl	80008c0 <HAL_GetTick>
 8000dfa:	4607      	mov	r7, r0
      while (HAL_IS_BIT_CLR(PWR->CR, PWR_CR_DBP))
 8000dfc:	6833      	ldr	r3, [r6, #0]
 8000dfe:	05da      	lsls	r2, r3, #23
 8000e00:	f53f af51 	bmi.w	8000ca6 <HAL_RCC_OscConfig+0xfa>
        if ((HAL_GetTick() - tickstart) > RCC_DBP_TIMEOUT_VALUE)
 8000e04:	f7ff fd5c 	bl	80008c0 <HAL_GetTick>
 8000e08:	1bc0      	subs	r0, r0, r7
 8000e0a:	2864      	cmp	r0, #100	; 0x64
 8000e0c:	d9f6      	bls.n	8000dfc <HAL_RCC_OscConfig+0x250>
            return HAL_TIMEOUT;
 8000e0e:	2003      	movs	r0, #3
}
 8000e10:	b002      	add	sp, #8
 8000e12:	e8bd 81f0 	ldmia.w	sp!, {r4, r5, r6, r7, r8, pc}
        __HAL_RCC_HSI_CALIBRATIONVALUE_ADJUST(RCC_OscInitStruct->HSICalibrationValue);
 8000e16:	4913      	ldr	r1, [pc, #76]	; (8000e64 <HAL_RCC_OscConfig+0x2b8>)
 8000e18:	6960      	ldr	r0, [r4, #20]
 8000e1a:	680a      	ldr	r2, [r1, #0]
 8000e1c:	f022 02f8 	bic.w	r2, r2, #248	; 0xf8
 8000e20:	ea42 02c0 	orr.w	r2, r2, r0, lsl #3
 8000e24:	600a      	str	r2, [r1, #0]
      if ((__HAL_RCC_GET_FLAG(RCC_FLAG_HSIRDY) != RESET) && (RCC_OscInitStruct->HSIState != RCC_HSI_ON))
 8000e26:	e703      	b.n	8000c30 <HAL_RCC_OscConfig+0x84>
      __HAL_RCC_HSE_CONFIG(RCC_OscInitStruct->HSEState);
 8000e28:	f103 4380 	add.w	r3, r3, #1073741824	; 0x40000000
 8000e2c:	f503 3304 	add.w	r3, r3, #135168	; 0x21000
 8000e30:	681a      	ldr	r2, [r3, #0]
        while (__HAL_RCC_GET_FLAG(RCC_FLAG_HSERDY) != RESET)
 8000e32:	461d      	mov	r5, r3
      __HAL_RCC_HSE_CONFIG(RCC_OscInitStruct->HSEState);
 8000e34:	f422 3280 	bic.w	r2, r2, #65536	; 0x10000
 8000e38:	601a      	str	r2, [r3, #0]
 8000e3a:	681a      	ldr	r2, [r3, #0]
 8000e3c:	f422 2280 	bic.w	r2, r2, #262144	; 0x40000
 8000e40:	601a      	str	r2, [r3, #0]
        tickstart = HAL_GetTick();
 8000e42:	f7ff fd3d 	bl	80008c0 <HAL_GetTick>
 8000e46:	4606      	mov	r6, r0
        while (__HAL_RCC_GET_FLAG(RCC_FLAG_HSERDY) != RESET)
 8000e48:	e004      	b.n	8000e54 <HAL_RCC_OscConfig+0x2a8>
          if ((HAL_GetTick() - tickstart) > HSE_TIMEOUT_VALUE)
 8000e4a:	f7ff fd39 	bl	80008c0 <HAL_GetTick>
 8000e4e:	1b80      	subs	r0, r0, r6
 8000e50:	2864      	cmp	r0, #100	; 0x64
 8000e52:	d8dc      	bhi.n	8000e0e <HAL_RCC_OscConfig+0x262>
        while (__HAL_RCC_GET_FLAG(RCC_FLAG_HSERDY) != RESET)
 8000e54:	682b      	ldr	r3, [r5, #0]
 8000e56:	039b      	lsls	r3, r3, #14
 8000e58:	d4f7      	bmi.n	8000e4a <HAL_RCC_OscConfig+0x29e>
 8000e5a:	e6e6      	b.n	8000c2a <HAL_RCC_OscConfig+0x7e>
    return HAL_ERROR;
 8000e5c:	2001      	movs	r0, #1
}
 8000e5e:	4770      	bx	lr
    FlagStatus       pwrclkchanged = RESET;
 8000e60:	2500      	movs	r5, #0
 8000e62:	e71b      	b.n	8000c9c <HAL_RCC_OscConfig+0xf0>
 8000e64:	40021000 	.word	0x40021000
 8000e68:	42420480 	.word	0x42420480
 8000e6c:	20000010 	.word	0x20000010
 8000e70:	10624dd3 	.word	0x10624dd3
 8000e74:	40007000 	.word	0x40007000
 8000e78:	42420000 	.word	0x42420000
 8000e7c:	42420060 	.word	0x42420060
    __HAL_RCC_LSE_CONFIG(RCC_OscInitStruct->LSEState);
 8000e80:	f103 4380 	add.w	r3, r3, #1073741824	; 0x40000000
 8000e84:	f503 3304 	add.w	r3, r3, #135168	; 0x21000
 8000e88:	6a1a      	ldr	r2, [r3, #32]
      while (__HAL_RCC_GET_FLAG(RCC_FLAG_LSERDY) != RESET)
 8000e8a:	461e      	mov	r6, r3
    __HAL_RCC_LSE_CONFIG(RCC_OscInitStruct->LSEState);
 8000e8c:	f022 0201 	bic.w	r2, r2, #1
 8000e90:	621a      	str	r2, [r3, #32]
 8000e92:	6a1a      	ldr	r2, [r3, #32]
        if ((HAL_GetTick() - tickstart) > RCC_LSE_TIMEOUT_VALUE)
 8000e94:	f241 3888 	movw	r8, #5000	; 0x1388
    __HAL_RCC_LSE_CONFIG(RCC_OscInitStruct->LSEState);
 8000e98:	f022 0204 	bic.w	r2, r2, #4
 8000e9c:	621a      	str	r2, [r3, #32]
      tickstart = HAL_GetTick();
 8000e9e:	f7ff fd0f 	bl	80008c0 <HAL_GetTick>
 8000ea2:	4607      	mov	r7, r0
      while (__HAL_RCC_GET_FLAG(RCC_FLAG_LSERDY) != RESET)
 8000ea4:	e004      	b.n	8000eb0 <HAL_RCC_OscConfig+0x304>
        if ((HAL_GetTick() - tickstart) > RCC_LSE_TIMEOUT_VALUE)
 8000ea6:	f7ff fd0b 	bl	80008c0 <HAL_GetTick>
 8000eaa:	1bc0      	subs	r0, r0, r7
 8000eac:	4540      	cmp	r0, r8
 8000eae:	d8ae      	bhi.n	8000e0e <HAL_RCC_OscConfig+0x262>
      while (__HAL_RCC_GET_FLAG(RCC_FLAG_LSERDY) != RESET)
 8000eb0:	6a33      	ldr	r3, [r6, #32]
 8000eb2:	0798      	lsls	r0, r3, #30
 8000eb4:	d4f7      	bmi.n	8000ea6 <HAL_RCC_OscConfig+0x2fa>
    if (pwrclkchanged == SET)
 8000eb6:	2d00      	cmp	r5, #0
 8000eb8:	f43f af4b 	beq.w	8000d52 <HAL_RCC_OscConfig+0x1a6>
 8000ebc:	e744      	b.n	8000d48 <HAL_RCC_OscConfig+0x19c>
        __HAL_RCC_HSI_DISABLE();
 8000ebe:	4a34      	ldr	r2, [pc, #208]	; (8000f90 <HAL_RCC_OscConfig+0x3e4>)
        while (__HAL_RCC_GET_FLAG(RCC_FLAG_HSIRDY) != RESET)
 8000ec0:	4d34      	ldr	r5, [pc, #208]	; (8000f94 <HAL_RCC_OscConfig+0x3e8>)
        __HAL_RCC_HSI_DISABLE();
 8000ec2:	6013      	str	r3, [r2, #0]
        tickstart = HAL_GetTick();
 8000ec4:	f7ff fcfc 	bl	80008c0 <HAL_GetTick>
 8000ec8:	4606      	mov	r6, r0
        while (__HAL_RCC_GET_FLAG(RCC_FLAG_HSIRDY) != RESET)
 8000eca:	e004      	b.n	8000ed6 <HAL_RCC_OscConfig+0x32a>
          if ((HAL_GetTick() - tickstart) > HSI_TIMEOUT_VALUE)
 8000ecc:	f7ff fcf8 	bl	80008c0 <HAL_GetTick>
 8000ed0:	1b80      	subs	r0, r0, r6
 8000ed2:	2802      	cmp	r0, #2
 8000ed4:	d89b      	bhi.n	8000e0e <HAL_RCC_OscConfig+0x262>
        while (__HAL_RCC_GET_FLAG(RCC_FLAG_HSIRDY) != RESET)
 8000ed6:	682b      	ldr	r3, [r5, #0]
 8000ed8:	0799      	lsls	r1, r3, #30
 8000eda:	d4f7      	bmi.n	8000ecc <HAL_RCC_OscConfig+0x320>
 8000edc:	6823      	ldr	r3, [r4, #0]
 8000ede:	e6a7      	b.n	8000c30 <HAL_RCC_OscConfig+0x84>
      __HAL_RCC_HSE_CONFIG(RCC_OscInitStruct->HSEState);
 8000ee0:	f103 4380 	add.w	r3, r3, #1073741824	; 0x40000000
 8000ee4:	f5a3 333c 	sub.w	r3, r3, #192512	; 0x2f000
 8000ee8:	681a      	ldr	r2, [r3, #0]
 8000eea:	f442 2280 	orr.w	r2, r2, #262144	; 0x40000
 8000eee:	601a      	str	r2, [r3, #0]
 8000ef0:	681a      	ldr	r2, [r3, #0]
 8000ef2:	f442 3280 	orr.w	r2, r2, #65536	; 0x10000
 8000ef6:	601a      	str	r2, [r3, #0]
 8000ef8:	e689      	b.n	8000c0e <HAL_RCC_OscConfig+0x62>
    __HAL_RCC_LSE_CONFIG(RCC_OscInitStruct->LSEState);
 8000efa:	f042 0204 	orr.w	r2, r2, #4
 8000efe:	621a      	str	r2, [r3, #32]
 8000f00:	6a1a      	ldr	r2, [r3, #32]
 8000f02:	f042 0201 	orr.w	r2, r2, #1
 8000f06:	621a      	str	r2, [r3, #32]
 8000f08:	e70d      	b.n	8000d26 <HAL_RCC_OscConfig+0x17a>
      if ((RCC_OscInitStruct->PLL.PLLState) == RCC_PLL_OFF)
 8000f0a:	2801      	cmp	r0, #1
 8000f0c:	f43f af4d 	beq.w	8000daa <HAL_RCC_OscConfig+0x1fe>
        pll_config = RCC->CFGR;
 8000f10:	686b      	ldr	r3, [r5, #4]
        if ((READ_BIT(pll_config, RCC_CFGR_PLLSRC) != RCC_OscInitStruct->PLL.PLLSource) ||
 8000f12:	6a22      	ldr	r2, [r4, #32]
 8000f14:	f403 3180 	and.w	r1, r3, #65536	; 0x10000
 8000f18:	4291      	cmp	r1, r2
 8000f1a:	f47f af45 	bne.w	8000da8 <HAL_RCC_OscConfig+0x1fc>
 8000f1e:	6a60      	ldr	r0, [r4, #36]	; 0x24
            (READ_BIT(pll_config, RCC_CFGR_PLLMULL) != RCC_OscInitStruct->PLL.PLLMUL))
 8000f20:	f403 1370 	and.w	r3, r3, #3932160	; 0x3c0000
    return HAL_ERROR;
 8000f24:	1a18      	subs	r0, r3, r0
 8000f26:	bf18      	it	ne
 8000f28:	2001      	movne	r0, #1
 8000f2a:	e73e      	b.n	8000daa <HAL_RCC_OscConfig+0x1fe>
        __HAL_RCC_PLL_DISABLE();
 8000f2c:	6011      	str	r1, [r2, #0]
        tickstart = HAL_GetTick();
 8000f2e:	f7ff fcc7 	bl	80008c0 <HAL_GetTick>
 8000f32:	4606      	mov	r6, r0
        while (__HAL_RCC_GET_FLAG(RCC_FLAG_PLLRDY)  != RESET)
 8000f34:	e005      	b.n	8000f42 <HAL_RCC_OscConfig+0x396>
          if ((HAL_GetTick() - tickstart) > PLL_TIMEOUT_VALUE)
 8000f36:	f7ff fcc3 	bl	80008c0 <HAL_GetTick>
 8000f3a:	1b80      	subs	r0, r0, r6
 8000f3c:	2802      	cmp	r0, #2
 8000f3e:	f63f af66 	bhi.w	8000e0e <HAL_RCC_OscConfig+0x262>
        while (__HAL_RCC_GET_FLAG(RCC_FLAG_PLLRDY)  != RESET)
 8000f42:	682b      	ldr	r3, [r5, #0]
 8000f44:	0199      	lsls	r1, r3, #6
 8000f46:	d4f6      	bmi.n	8000f36 <HAL_RCC_OscConfig+0x38a>
        if (RCC_OscInitStruct->PLL.PLLSource == RCC_PLLSOURCE_HSE)
 8000f48:	6a22      	ldr	r2, [r4, #32]
 8000f4a:	f5b2 3f80 	cmp.w	r2, #65536	; 0x10000
 8000f4e:	d105      	bne.n	8000f5c <HAL_RCC_OscConfig+0x3b0>
          __HAL_RCC_HSE_PREDIV_CONFIG(RCC_OscInitStruct->HSEPredivValue);
 8000f50:	686b      	ldr	r3, [r5, #4]
 8000f52:	68a1      	ldr	r1, [r4, #8]
 8000f54:	f423 3300 	bic.w	r3, r3, #131072	; 0x20000
 8000f58:	430b      	orrs	r3, r1
 8000f5a:	606b      	str	r3, [r5, #4]
        __HAL_RCC_PLL_ENABLE();
 8000f5c:	2501      	movs	r5, #1
        __HAL_RCC_PLL_CONFIG(RCC_OscInitStruct->PLL.PLLSource,
 8000f5e:	4b0d      	ldr	r3, [pc, #52]	; (8000f94 <HAL_RCC_OscConfig+0x3e8>)
 8000f60:	6a60      	ldr	r0, [r4, #36]	; 0x24
 8000f62:	6859      	ldr	r1, [r3, #4]
 8000f64:	4302      	orrs	r2, r0
 8000f66:	f421 1174 	bic.w	r1, r1, #3997696	; 0x3d0000
        __HAL_RCC_PLL_ENABLE();
 8000f6a:	480b      	ldr	r0, [pc, #44]	; (8000f98 <HAL_RCC_OscConfig+0x3ec>)
        __HAL_RCC_PLL_CONFIG(RCC_OscInitStruct->PLL.PLLSource,
 8000f6c:	430a      	orrs	r2, r1
 8000f6e:	605a      	str	r2, [r3, #4]
        __HAL_RCC_PLL_ENABLE();
 8000f70:	6005      	str	r5, [r0, #0]
        while (__HAL_RCC_GET_FLAG(RCC_FLAG_PLLRDY)  == RESET)
 8000f72:	461c      	mov	r4, r3
        tickstart = HAL_GetTick();
 8000f74:	f7ff fca4 	bl	80008c0 <HAL_GetTick>
 8000f78:	4605      	mov	r5, r0
        while (__HAL_RCC_GET_FLAG(RCC_FLAG_PLLRDY)  == RESET)
 8000f7a:	e005      	b.n	8000f88 <HAL_RCC_OscConfig+0x3dc>
          if ((HAL_GetTick() - tickstart) > PLL_TIMEOUT_VALUE)
 8000f7c:	f7ff fca0 	bl	80008c0 <HAL_GetTick>
 8000f80:	1b40      	subs	r0, r0, r5
 8000f82:	2802      	cmp	r0, #2
 8000f84:	f63f af43 	bhi.w	8000e0e <HAL_RCC_OscConfig+0x262>
        while (__HAL_RCC_GET_FLAG(RCC_FLAG_PLLRDY)  == RESET)
 8000f88:	6823      	ldr	r3, [r4, #0]
 8000f8a:	019a      	lsls	r2, r3, #6
 8000f8c:	d5f6      	bpl.n	8000f7c <HAL_RCC_OscConfig+0x3d0>
 8000f8e:	e6fd      	b.n	8000d8c <HAL_RCC_OscConfig+0x1e0>
 8000f90:	42420000 	.word	0x42420000
 8000f94:	40021000 	.word	0x40021000
 8000f98:	42420060 	.word	0x42420060

08000f9c <HAL_RCC_ClockConfig>:
  if (RCC_ClkInitStruct == NULL)
 8000f9c:	b178      	cbz	r0, 8000fbe <HAL_RCC_ClockConfig+0x22>
  if (FLatency > __HAL_FLASH_GET_LATENCY())
 8000f9e:	4a5d      	ldr	r2, [pc, #372]	; (8001114 <HAL_RCC_ClockConfig+0x178>)
 8000fa0:	6813      	ldr	r3, [r2, #0]
 8000fa2:	f003 0307 	and.w	r3, r3, #7
 8000fa6:	428b      	cmp	r3, r1
 8000fa8:	d20b      	bcs.n	8000fc2 <HAL_RCC_ClockConfig+0x26>
    __HAL_FLASH_SET_LATENCY(FLatency);
 8000faa:	6813      	ldr	r3, [r2, #0]
 8000fac:	f023 0307 	bic.w	r3, r3, #7
 8000fb0:	430b      	orrs	r3, r1
 8000fb2:	6013      	str	r3, [r2, #0]
    if (__HAL_FLASH_GET_LATENCY() != FLatency)
 8000fb4:	6813      	ldr	r3, [r2, #0]
 8000fb6:	f003 0307 	and.w	r3, r3, #7
 8000fba:	428b      	cmp	r3, r1
 8000fbc:	d001      	beq.n	8000fc2 <HAL_RCC_ClockConfig+0x26>
    return HAL_ERROR;
 8000fbe:	2001      	movs	r0, #1
}
 8000fc0:	4770      	bx	lr
{
 8000fc2:	e92d 41f0 	stmdb	sp!, {r4, r5, r6, r7, r8, lr}
if (((RCC_ClkInitStruct->ClockType) & RCC_CLOCKTYPE_HCLK) == RCC_CLOCKTYPE_HCLK)
 8000fc6:	6803      	ldr	r3, [r0, #0]
{
 8000fc8:	b086      	sub	sp, #24
if (((RCC_ClkInitStruct->ClockType) & RCC_CLOCKTYPE_HCLK) == RCC_CLOCKTYPE_HCLK)
 8000fca:	079d      	lsls	r5, r3, #30
 8000fcc:	d514      	bpl.n	8000ff8 <HAL_RCC_ClockConfig+0x5c>
    if (((RCC_ClkInitStruct->ClockType) & RCC_CLOCKTYPE_PCLK1) == RCC_CLOCKTYPE_PCLK1)
 8000fce:	075c      	lsls	r4, r3, #29
 8000fd0:	d504      	bpl.n	8000fdc <HAL_RCC_ClockConfig+0x40>
      MODIFY_REG(RCC->CFGR, RCC_CFGR_PPRE1, RCC_HCLK_DIV16);
 8000fd2:	4c51      	ldr	r4, [pc, #324]	; (8001118 <HAL_RCC_ClockConfig+0x17c>)
 8000fd4:	6862      	ldr	r2, [r4, #4]
 8000fd6:	f442 62e0 	orr.w	r2, r2, #1792	; 0x700
 8000fda:	6062      	str	r2, [r4, #4]
    if (((RCC_ClkInitStruct->ClockType) & RCC_CLOCKTYPE_PCLK2) == RCC_CLOCKTYPE_PCLK2)
 8000fdc:	071a      	lsls	r2, r3, #28
 8000fde:	d504      	bpl.n	8000fea <HAL_RCC_ClockConfig+0x4e>
      MODIFY_REG(RCC->CFGR, RCC_CFGR_PPRE2, (RCC_HCLK_DIV16 << 3));
 8000fe0:	4c4d      	ldr	r4, [pc, #308]	; (8001118 <HAL_RCC_ClockConfig+0x17c>)
 8000fe2:	6862      	ldr	r2, [r4, #4]
 8000fe4:	f442 5260 	orr.w	r2, r2, #14336	; 0x3800
 8000fe8:	6062      	str	r2, [r4, #4]
    MODIFY_REG(RCC->CFGR, RCC_CFGR_HPRE, RCC_ClkInitStruct->AHBCLKDivider);
 8000fea:	4c4b      	ldr	r4, [pc, #300]	; (8001118 <HAL_RCC_ClockConfig+0x17c>)
 8000fec:	6885      	ldr	r5, [r0, #8]
 8000fee:	6862      	ldr	r2, [r4, #4]
 8000ff0:	f022 02f0 	bic.w	r2, r2, #240	; 0xf0
 8000ff4:	432a      	orrs	r2, r5
 8000ff6:	6062      	str	r2, [r4, #4]
  if (((RCC_ClkInitStruct->ClockType) & RCC_CLOCKTYPE_SYSCLK) == RCC_CLOCKTYPE_SYSCLK)
 8000ff8:	07db      	lsls	r3, r3, #31
 8000ffa:	4604      	mov	r4, r0
 8000ffc:	460d      	mov	r5, r1
 8000ffe:	d520      	bpl.n	8001042 <HAL_RCC_ClockConfig+0xa6>
    if (RCC_ClkInitStruct->SYSCLKSource == RCC_SYSCLKSOURCE_HSE)
 8001000:	6842      	ldr	r2, [r0, #4]
      if (__HAL_RCC_GET_FLAG(RCC_FLAG_HSERDY) == RESET)
 8001002:	4b45      	ldr	r3, [pc, #276]	; (8001118 <HAL_RCC_ClockConfig+0x17c>)
    if (RCC_ClkInitStruct->SYSCLKSource == RCC_SYSCLKSOURCE_HSE)
 8001004:	2a01      	cmp	r2, #1
      if (__HAL_RCC_GET_FLAG(RCC_FLAG_HSERDY) == RESET)
 8001006:	681b      	ldr	r3, [r3, #0]
    if (RCC_ClkInitStruct->SYSCLKSource == RCC_SYSCLKSOURCE_HSE)
 8001008:	d06f      	beq.n	80010ea <HAL_RCC_ClockConfig+0x14e>
    else if (RCC_ClkInitStruct->SYSCLKSource == RCC_SYSCLKSOURCE_PLLCLK)
 800100a:	2a02      	cmp	r2, #2
 800100c:	d07e      	beq.n	800110c <HAL_RCC_ClockConfig+0x170>
      if (__HAL_RCC_GET_FLAG(RCC_FLAG_HSIRDY) == RESET)
 800100e:	0798      	lsls	r0, r3, #30
 8001010:	d527      	bpl.n	8001062 <HAL_RCC_ClockConfig+0xc6>
    __HAL_RCC_SYSCLK_CONFIG(RCC_ClkInitStruct->SYSCLKSource);
 8001012:	4e41      	ldr	r6, [pc, #260]	; (8001118 <HAL_RCC_ClockConfig+0x17c>)
      if ((HAL_GetTick() - tickstart) > CLOCKSWITCH_TIMEOUT_VALUE)
 8001014:	f241 3888 	movw	r8, #5000	; 0x1388
    __HAL_RCC_SYSCLK_CONFIG(RCC_ClkInitStruct->SYSCLKSource);
 8001018:	6873      	ldr	r3, [r6, #4]
 800101a:	f023 0303 	bic.w	r3, r3, #3
 800101e:	4313      	orrs	r3, r2
 8001020:	6073      	str	r3, [r6, #4]
    tickstart = HAL_GetTick();
 8001022:	f7ff fc4d 	bl	80008c0 <HAL_GetTick>
 8001026:	4607      	mov	r7, r0
    while (__HAL_RCC_GET_SYSCLK_SOURCE() != (RCC_ClkInitStruct->SYSCLKSource << RCC_CFGR_SWS_Pos))
 8001028:	e004      	b.n	8001034 <HAL_RCC_ClockConfig+0x98>
      if ((HAL_GetTick() - tickstart) > CLOCKSWITCH_TIMEOUT_VALUE)
 800102a:	f7ff fc49 	bl	80008c0 <HAL_GetTick>
 800102e:	1bc0      	subs	r0, r0, r7
 8001030:	4540      	cmp	r0, r8
 8001032:	d869      	bhi.n	8001108 <HAL_RCC_ClockConfig+0x16c>
    while (__HAL_RCC_GET_SYSCLK_SOURCE() != (RCC_ClkInitStruct->SYSCLKSource << RCC_CFGR_SWS_Pos))
 8001034:	6873      	ldr	r3, [r6, #4]
 8001036:	6862      	ldr	r2, [r4, #4]
 8001038:	f003 030c 	and.w	r3, r3, #12
 800103c:	ebb3 0f82 	cmp.w	r3, r2, lsl #2
 8001040:	d1f3      	bne.n	800102a <HAL_RCC_ClockConfig+0x8e>
  if (FLatency < __HAL_FLASH_GET_LATENCY())
 8001042:	4a34      	ldr	r2, [pc, #208]	; (8001114 <HAL_RCC_ClockConfig+0x178>)
 8001044:	6813      	ldr	r3, [r2, #0]
 8001046:	f003 0307 	and.w	r3, r3, #7
 800104a:	42ab      	cmp	r3, r5
 800104c:	d90d      	bls.n	800106a <HAL_RCC_ClockConfig+0xce>
    __HAL_FLASH_SET_LATENCY(FLatency);
 800104e:	6813      	ldr	r3, [r2, #0]
 8001050:	f023 0307 	bic.w	r3, r3, #7
 8001054:	432b      	orrs	r3, r5
 8001056:	6013      	str	r3, [r2, #0]
    if (__HAL_FLASH_GET_LATENCY() != FLatency)
 8001058:	6813      	ldr	r3, [r2, #0]
 800105a:	f003 0307 	and.w	r3, r3, #7
 800105e:	42ab      	cmp	r3, r5
 8001060:	d003      	beq.n	800106a <HAL_RCC_ClockConfig+0xce>
    return HAL_ERROR;
 8001062:	2001      	movs	r0, #1
}
 8001064:	b006      	add	sp, #24
 8001066:	e8bd 81f0 	ldmia.w	sp!, {r4, r5, r6, r7, r8, pc}
if (((RCC_ClkInitStruct->ClockType) & RCC_CLOCKTYPE_PCLK1) == RCC_CLOCKTYPE_PCLK1)
 800106a:	6823      	ldr	r3, [r4, #0]
 800106c:	0759      	lsls	r1, r3, #29
 800106e:	d506      	bpl.n	800107e <HAL_RCC_ClockConfig+0xe2>
    MODIFY_REG(RCC->CFGR, RCC_CFGR_PPRE1, RCC_ClkInitStruct->APB1CLKDivider);
 8001070:	4929      	ldr	r1, [pc, #164]	; (8001118 <HAL_RCC_ClockConfig+0x17c>)
 8001072:	68e0      	ldr	r0, [r4, #12]
 8001074:	684a      	ldr	r2, [r1, #4]
 8001076:	f422 62e0 	bic.w	r2, r2, #1792	; 0x700
 800107a:	4302      	orrs	r2, r0
 800107c:	604a      	str	r2, [r1, #4]
  if (((RCC_ClkInitStruct->ClockType) & RCC_CLOCKTYPE_PCLK2) == RCC_CLOCKTYPE_PCLK2)
 800107e:	071a      	lsls	r2, r3, #28
 8001080:	d507      	bpl.n	8001092 <HAL_RCC_ClockConfig+0xf6>
    MODIFY_REG(RCC->CFGR, RCC_CFGR_PPRE2, ((RCC_ClkInitStruct->APB2CLKDivider) << 3));
 8001082:	4a25      	ldr	r2, [pc, #148]	; (8001118 <HAL_RCC_ClockConfig+0x17c>)
 8001084:	6921      	ldr	r1, [r4, #16]
 8001086:	6853      	ldr	r3, [r2, #4]
 8001088:	f423 5360 	bic.w	r3, r3, #14336	; 0x3800
 800108c:	ea43 03c1 	orr.w	r3, r3, r1, lsl #3
 8001090:	6053      	str	r3, [r2, #4]
  const uint8_t aPredivFactorTable[2] = {1, 2};
 8001092:	f240 2201 	movw	r2, #513	; 0x201
  const uint8_t aPLLMULFactorTable[16] = {2, 3, 4, 5, 6, 7, 8, 9, 10, 11, 12, 13, 14, 15, 16, 16};
 8001096:	4b21      	ldr	r3, [pc, #132]	; (800111c <HAL_RCC_ClockConfig+0x180>)
 8001098:	ac06      	add	r4, sp, #24
  const uint8_t aPredivFactorTable[2] = {1, 2};
 800109a:	f8ad 2004 	strh.w	r2, [sp, #4]
  const uint8_t aPLLMULFactorTable[16] = {2, 3, 4, 5, 6, 7, 8, 9, 10, 11, 12, 13, 14, 15, 16, 16};
 800109e:	cb0f      	ldmia	r3, {r0, r1, r2, r3}
 80010a0:	e904 000f 	stmdb	r4, {r0, r1, r2, r3}
  tmpreg = RCC->CFGR;
 80010a4:	491c      	ldr	r1, [pc, #112]	; (8001118 <HAL_RCC_ClockConfig+0x17c>)
 80010a6:	684a      	ldr	r2, [r1, #4]
  switch (tmpreg & RCC_CFGR_SWS)
 80010a8:	f002 030c 	and.w	r3, r2, #12
 80010ac:	2b08      	cmp	r3, #8
 80010ae:	d11a      	bne.n	80010e6 <HAL_RCC_ClockConfig+0x14a>
      pllmul = aPLLMULFactorTable[(uint32_t)(tmpreg & RCC_CFGR_PLLMULL) >> RCC_CFGR_PLLMULL_Pos];
 80010b0:	f3c2 4383 	ubfx	r3, r2, #18, #4
 80010b4:	4423      	add	r3, r4
 80010b6:	f813 0c10 	ldrb.w	r0, [r3, #-16]
      if ((tmpreg & RCC_CFGR_PLLSRC) != RCC_PLLSOURCE_HSI_DIV2)
 80010ba:	03d3      	lsls	r3, r2, #15
 80010bc:	d418      	bmi.n	80010f0 <HAL_RCC_ClockConfig+0x154>
        pllclk = (uint32_t)((HSI_VALUE >> 1) * pllmul);
 80010be:	4b18      	ldr	r3, [pc, #96]	; (8001120 <HAL_RCC_ClockConfig+0x184>)
 80010c0:	fb03 f300 	mul.w	r3, r3, r0
  SystemCoreClock = HAL_RCC_GetSysClockFreq() >> AHBPrescTable[(RCC->CFGR & RCC_CFGR_HPRE) >> RCC_CFGR_HPRE_Pos];
 80010c4:	4a14      	ldr	r2, [pc, #80]	; (8001118 <HAL_RCC_ClockConfig+0x17c>)
 80010c6:	4817      	ldr	r0, [pc, #92]	; (8001124 <HAL_RCC_ClockConfig+0x188>)
 80010c8:	6852      	ldr	r2, [r2, #4]
  HAL_InitTick(uwTickPrio);
 80010ca:	4917      	ldr	r1, [pc, #92]	; (8001128 <HAL_RCC_ClockConfig+0x18c>)
  SystemCoreClock = HAL_RCC_GetSysClockFreq() >> AHBPrescTable[(RCC->CFGR & RCC_CFGR_HPRE) >> RCC_CFGR_HPRE_Pos];
 80010cc:	f3c2 1203 	ubfx	r2, r2, #4, #4
 80010d0:	5c80      	ldrb	r0, [r0, r2]
 80010d2:	4a16      	ldr	r2, [pc, #88]	; (800112c <HAL_RCC_ClockConfig+0x190>)
 80010d4:	40c3      	lsrs	r3, r0
  HAL_InitTick(uwTickPrio);
 80010d6:	6808      	ldr	r0, [r1, #0]
  SystemCoreClock = HAL_RCC_GetSysClockFreq() >> AHBPrescTable[(RCC->CFGR & RCC_CFGR_HPRE) >> RCC_CFGR_HPRE_Pos];
 80010d8:	6013      	str	r3, [r2, #0]
  HAL_InitTick(uwTickPrio);
 80010da:	f7ff fbaf 	bl	800083c <HAL_InitTick>
  return HAL_OK;
 80010de:	2000      	movs	r0, #0
}
 80010e0:	b006      	add	sp, #24
 80010e2:	e8bd 81f0 	ldmia.w	sp!, {r4, r5, r6, r7, r8, pc}
      sysclockfreq = HSE_VALUE;
 80010e6:	4b12      	ldr	r3, [pc, #72]	; (8001130 <HAL_RCC_ClockConfig+0x194>)
 80010e8:	e7ec      	b.n	80010c4 <HAL_RCC_ClockConfig+0x128>
      if (__HAL_RCC_GET_FLAG(RCC_FLAG_HSERDY) == RESET)
 80010ea:	039f      	lsls	r7, r3, #14
 80010ec:	d491      	bmi.n	8001012 <HAL_RCC_ClockConfig+0x76>
 80010ee:	e7b8      	b.n	8001062 <HAL_RCC_ClockConfig+0xc6>
        prediv = aPredivFactorTable[(uint32_t)(RCC->CFGR & RCC_CFGR_PLLXTPRE) >> RCC_CFGR_PLLXTPRE_Pos];
 80010f0:	684a      	ldr	r2, [r1, #4]
        pllclk = (uint32_t)((HSE_VALUE  * pllmul) / prediv);
 80010f2:	4b0f      	ldr	r3, [pc, #60]	; (8001130 <HAL_RCC_ClockConfig+0x194>)
        prediv = aPredivFactorTable[(uint32_t)(RCC->CFGR & RCC_CFGR_PLLXTPRE) >> RCC_CFGR_PLLXTPRE_Pos];
 80010f4:	f3c2 4240 	ubfx	r2, r2, #17, #1
        pllclk = (uint32_t)((HSE_VALUE  * pllmul) / prediv);
 80010f8:	fb03 f300 	mul.w	r3, r3, r0
        prediv = aPredivFactorTable[(uint32_t)(RCC->CFGR & RCC_CFGR_PLLXTPRE) >> RCC_CFGR_PLLXTPRE_Pos];
 80010fc:	4422      	add	r2, r4
 80010fe:	f812 2c14 	ldrb.w	r2, [r2, #-20]
        pllclk = (uint32_t)((HSE_VALUE  * pllmul) / prediv);
 8001102:	fbb3 f3f2 	udiv	r3, r3, r2
 8001106:	e7dd      	b.n	80010c4 <HAL_RCC_ClockConfig+0x128>
        return HAL_TIMEOUT;
 8001108:	2003      	movs	r0, #3
 800110a:	e7ab      	b.n	8001064 <HAL_RCC_ClockConfig+0xc8>
      if (__HAL_RCC_GET_FLAG(RCC_FLAG_PLLRDY) == RESET)
 800110c:	019e      	lsls	r6, r3, #6
 800110e:	d480      	bmi.n	8001012 <HAL_RCC_ClockConfig+0x76>
 8001110:	e7a7      	b.n	8001062 <HAL_RCC_ClockConfig+0xc6>
 8001112:	bf00      	nop
 8001114:	40022000 	.word	0x40022000
 8001118:	40021000 	.word	0x40021000
 800111c:	08001194 	.word	0x08001194
 8001120:	003d0900 	.word	0x003d0900
 8001124:	080011a4 	.word	0x080011a4
 8001128:	20000018 	.word	0x20000018
 800112c:	20000010 	.word	0x20000010
 8001130:	007a1200 	.word	0x007a1200

08001134 <__libc_init_array>:
 8001134:	b570      	push	{r4, r5, r6, lr}
 8001136:	2500      	movs	r5, #0
 8001138:	4e0c      	ldr	r6, [pc, #48]	; (800116c <__libc_init_array+0x38>)
 800113a:	4c0d      	ldr	r4, [pc, #52]	; (8001170 <__libc_init_array+0x3c>)
 800113c:	1ba4      	subs	r4, r4, r6
 800113e:	10a4      	asrs	r4, r4, #2
 8001140:	42a5      	cmp	r5, r4
 8001142:	d109      	bne.n	8001158 <__libc_init_array+0x24>
 8001144:	f000 f81a 	bl	800117c <_init>
 8001148:	2500      	movs	r5, #0
 800114a:	4e0a      	ldr	r6, [pc, #40]	; (8001174 <__libc_init_array+0x40>)
 800114c:	4c0a      	ldr	r4, [pc, #40]	; (8001178 <__libc_init_array+0x44>)
 800114e:	1ba4      	subs	r4, r4, r6
 8001150:	10a4      	asrs	r4, r4, #2
 8001152:	42a5      	cmp	r5, r4
 8001154:	d105      	bne.n	8001162 <__libc_init_array+0x2e>
 8001156:	bd70      	pop	{r4, r5, r6, pc}
 8001158:	f856 3025 	ldr.w	r3, [r6, r5, lsl #2]
 800115c:	4798      	blx	r3
 800115e:	3501      	adds	r5, #1
 8001160:	e7ee      	b.n	8001140 <__libc_init_array+0xc>
 8001162:	f856 3025 	ldr.w	r3, [r6, r5, lsl #2]
 8001166:	4798      	blx	r3
 8001168:	3501      	adds	r5, #1
 800116a:	e7f2      	b.n	8001152 <__libc_init_array+0x1e>
 800116c:	080011b4 	.word	0x080011b4
 8001170:	080011b4 	.word	0x080011b4
 8001174:	080011b4 	.word	0x080011b4
 8001178:	080011b8 	.word	0x080011b8

0800117c <_init>:
 800117c:	b5f8      	push	{r3, r4, r5, r6, r7, lr}
 800117e:	bf00      	nop
 8001180:	bcf8      	pop	{r3, r4, r5, r6, r7}
 8001182:	bc08      	pop	{r3}
 8001184:	469e      	mov	lr, r3
 8001186:	4770      	bx	lr

08001188 <_fini>:
 8001188:	b5f8      	push	{r3, r4, r5, r6, r7, lr}
 800118a:	bf00      	nop
 800118c:	bcf8      	pop	{r3, r4, r5, r6, r7}
 800118e:	bc08      	pop	{r3}
 8001190:	469e      	mov	lr, r3
 8001192:	4770      	bx	lr
